(dp1
V\u8000
I638
sV\u8604
I5003
sV\u6d89
I1116
sV\u4f0a
I600
sV\u9810
I304
sV\u8599
I4999
sV\u4e9f
I3196
sV\u6d1e
I884
sV\u7322
I7092
sV\u5aa7
I2482
sV\u7926
I3810
sV\u9da9
I2577
sV\u6cb3
I588
sV\u9136
I6858
sV\u5438
I2049
sV\u5a3c
I5185
sV\u8ac7
I541
sV\u53cd
I2855
sV\u724c
I4754
sV\u59d1
I1088
sV\u7850
I6625
sV\u7e54
I1856
sV\u8458
I6414
sV\u9060
I271
sV\u77e5
I433
sV\u9664
I1893
sV\u7de9
I2381
sV\u5f6a
I6531
sV\u83ed
I6814
sV\u89f1
I4422
sV\u6b72
I1444
sV\u52f7
I4879
sV\u58fb
I955
sV\u777a
I7135
sV\u9bfd
I7269
sV\u8986
I226
sV\u700b
I7191
sV\u528c
I6588
sV\u5890
I6524
sV\u9b92
I4717
sV\u881b
I6124
sV\u6a9c
I3482
sV\u8e1f
I1154
sV\u5121
I3973
sV\u76a4
I3790
sV\u9a27
I7203
sV\u5d29
I1772
sV\u82ac
I1010
sV\u6f35
I5581
sV\u51b6
I1658
sV\u9abc
I5952
sV\u934d
I6230
sV\u564f
I5149
sV\u9951
I1753
sV\u9f55
I6327
sV\u6e5f
I4065
sV\u7463
I2494
sV\u93e2
I6550
sV\u5ce8
I1133
sV\u62ec
I1842
sV\u866f
I3602
sV\u68f0
I6462
sV\u8c73
I6746
sV\u4f75
I2807
sV\u6ef4
I3943
sV\u5b7d
I5188
sV\u9e7f
I1591
sV\u6081
I3124
sV\u6c89
I2606
sV\u8d08
I1473
sV\u4e0a
I107
sV\u728d
I5061
sV\u540e
I2551
sV\u7891
I855
sV\u9910
I332
sV\u5a12
I7095
sV\u7e95
I7038
sV\u6016
I3226
sV\u8499
I2114
sV\u55a3
I6110
sV\u7826
I5881
sV\u61ab
I4009
sV\u67af
I426
sV\u6db3
I6536
sV\u4f34
I905
sV\u73b7
I5171
sV\u9036
I2453
sV\u7fbf
I341
sV\u91cb
I3101
sV\u52cd
I5427
sV\u58d1
I1735
sV\u7950
I3502
sV\u9dd3
I2565
sV\u7f54
I2470
sV\u8558
I5218
sV\u808e
I7202
sV\u6add
I7345
sV\u8b5c
I4992
sV\u76e5
I3152
sV\u5e6a
I7152
sV\u59fb
I3120
sV\u9afd
I5899
sV\u5fff
I3860
sV\u8e8a
I2531
sV\u7d13
I6061
sV\u8317
I2694
sV\u8f1f
I1389
sV\u5021
I3605
sV\u71a0
I4090
sV\u9b27
I3690
sV\u6831
I2377
sV\u89b0
I4320
sV\u7439
I6553
sV\u7a3d
I1734
sV\u62c2
I34
sV\u68c6
I7272
sV\u8c49
I4328
sV\u514b
I1796
sV\u574f
I6995
sV\u9851
I7303
sV\u5d53
I4990
sV\u695b
I6482
sV\u86da
I4135
sV\u8cde
I1407
sV\u51e0
I935
sV\u57e4
I5491
sV\u5de8
I1822
sV\u816b
I2951
sV\u8d73
I6191
sV\u6381
I5392
sV\u6585
I5997
sV\u8404
I890
sV\u8e08
I4694
sV\u7b91
I6774
sV\u9a10
I6830
sV\u93a1
I5894
sV\u95a5
I5908
sV\u7b26
I547
sV\u62ab
I1578
sV\u872e
I6455
sV\u8932
I7294
sV\u70b7
I5796
sV\u7abb
I6405
sV\u9f3e
I6679
sV\u6240
I549
sV\u92cb
I2048
sV\u51cd
I3293
sV\u704c
I1743
sV\u67d9
I6128
sV\u4f5e
I2702
sV\u5162
I1961
sV\u7fe9
I1269
sV\u81ed
I3457
sV\u676e
I6016
sV\u4ef3
I7271
sV\u5cff
I6827
sV\u7f7e
I4404
sV\u6603
I617
sV\u8182
I5379
sV\u4e88
I1706
sV\u8d8a
I632
sV\u8017
I4767
sV\u6698
I5650
sV\u8a1b
I2672
sV\u5321
I1595
sV\u5f29
I3598
sS'\xac'
I4538
sV\u8ab0
I109
sV\u6d35
I5603
sV\u8cb4
I1095
sV\u7739
I6126
sV\u96b8
I5184
sV\u793d
I4837
sV\u98bc
I3673
sV\u8f49
I475
sV\u524b
I2115
sV\u914d
I2924
sV\u9b51
I5259
sV\u83d6
I2588
sV\u6a5b
I5444
sV\u6c5f
I850
sV\u5ee8
I4084
sV\u826b
I2345
sV\u9077
I1314
sV\u76f8
I131
sV\u597d
I464
sV\u8300
I4181
sV\u6485
I6301
sV\u6e89
I3471
sV\u8f08
I4888
sV\u9b10
I4856
sV\u7c95
I5719
sV\u6216
I1438
sV\u57a3
I2002
sV\u9ea9
I3808
sV\u63ab
I5757
sV\u7c2a
I937
sV\u65af
I1563
sV\u6fb3
I6430
sV\u8832
I3346
sV\u943a
I5158
sV\u7dbf
I689
sV\u714c
I3533
sV\u7b50
I4171
sV\u66d9
I902
sV\u8758
I4695
sV\u895c
I2407
sV\u4e5e
I1970
sV\u72e1
I2539
sV\u9360
I7179
sV\u5a66
I247
sV\u80ed
I4233
sV\u666e
I4007
sV\u8af1
I3672
sV\u4ff3
I6672
sV\u8cf5
I5606
sV\u96f9
I4816
sV\u98fd
I3081
sV\u7e7e
I5492
sV\u6703
I1204
sS'\x82'
I4528
sV\u6907
I5542
sV\u4f88
I3216
sV\u8c8a
I6417
sV\u968e
I839
sV\u5d94
I4179
sV\u6798
I3691
sV\u8b1b
I3332
sV\u699c
I4700
sV\u73a0
I5999
sV\u9723
I6088
sV\u9927
I3655
sV\u7fa8
I2334
sV\u5ebe
I2850
sV\u8445
I2066
sV\u8e49
I1324
sV\u6cca
I2756
sV\u904d
I3645
sV\u554f
I330
sV\u76ce
I4934
sV\u6b5b
I2608
sV\u7763
I1185
sV\u90e2
I1423
sV\u55e4
I2814
sV\u7967
I5499
sV\u9ae6
I1853
sV\u6bf0
I5647
sV\u9177
I4770
sV\u6581
I7082
sV\u8204
I5588
sV\u778d
I6741
sV\u9c10
I4742
sV\u5f12
I6991
sV\u7b95
I1928
sV\u6516
I4121
sV\u95a1
I5472
sV\u7722
I7066
sV\u5ea7
I1997
sV\u64ab
I1452
sV\u68b3
I3643
sV\u7cbb
I6712
sV\u80c3
I4580
sV\u6848
I2956
sV\u92cf
I2219
sV\u5dd1
I5760
sV\u7c50
I5745
sV\u8058
I1812
sV\u8e5c
I6875
sV\u9460
I1327
sV\u73e5
I4873
sV\u9264
I7
sV\u79e9
I2057
sV\u616e
I2466
sV\u8df1
I5809
sV\u56f7
I3494
sV\u7576
I783
sV\u5cfb
I1048
sV\u737a
I4789
sV\u8782
I5012
sV\u8b8a
I1313
sV\u918e
I5025
sV\u5c90
I1434
sV\u8617
I4349
sV\u6e9c
I1535
sV\u8a1f
I1436
sV\u74a0
I1824
sV\u9023
I575
sV\u5929
I280
sV\u672d
I2227
sV\u8cb0
I4389
sV\u6b35
I5614
sV\u90b8
I2459
sV\u7f3d
I7119
sV\u9ebc
I4982
sV\u59be
I130
sV\u67c2
I2587
sV\u8345
I1795
sV\u524f
I5541
sV\u71ce
I3415
sV\u9d51
I2372
sV\u7fd2
I857
sV\u85d6
I7195
sV\u6c5b
I6846
sV\u6a5f
I1489
sV\u7063
I1261
sV\u52e4
I2534
sV\u9de6
I1102
sV\u846b
I6526
sV\u66ec
I3911
sV\u826f
I518
sV\u6cf0
I1764
sV\u9677
I2110
sV\u5179
I4706
sV\u8304
I7208
sV\u7a95
I2087
sV\u9b14
I6391
sV\u6416
I152
sS'\x99'
I4549
sV\u621a
I1063
sV\u7622
I3806
sV\u5fa7
I2392
sV\u7c26
I1931
sV\u65ab
I5022
sV\u77b7
I5882
sV\u9436
I5820
sV\u7dbb
I3558
sV\u5f3c
I3183
sV\u6344
I7047
sV\u95cb
I4271
sV\u7d50
I158
sV\u7b54
I1689
sV\u60d9
I4363
sV\u5662
I6883
sV\u72e5
I5870
sV\u9364
I5523
sV\u5a6a
I3779
sV\u6e72
I2800
sV\u8af5
I6190
sV\u57f7
I1683
sV\u7476
I4689
sV\u9efd
I4775
sV\u787e
I5053
sV\u750b
I6889
sV\u578c
I6043
sV\u9e92
I2297
sV\u6198
I6186
sV\u8d1b
I6332
sV\u9123
I6024
sV\u5225
I419
sV\u79a8
I6420
sV\u662d
I118
sV\u87ac
I6770
sV\u6a35
I1573
sV\u7e3d
I1302
sV\u58be
I5434
sV\u8245
I5050
sV\u4f47
I1647
sV\u6cc6
I4000
sV\u964d
I1736
sV\u9a55
I483
sV\u84d6
I7281
sV\u6d5b
I4554
sV\u4fdc
I5332
sV\u6b5f
I3330
sV\u96e2
I359
sV\u53e4
I515
sV\u59e8
I7116
sV\u9aea
I4647
sV\u6df0
I7182
sV\u5e7d
I465
sV\u7ffc
I1447
sV\u8600
I6031
sV\u8004
I5958
sV\u6b89
I3286
sV\u8a08
I1100
sV\u9e10
I6534
sV\u5d12
I1967
sV\u4e9b
I4673
sV\u611a
I1151
sV\u52a3
I3889
sV\u7522
I1411
sV\u91a5
I5498
sV\u5ca7
I2166
sV\u66ab
I448
sV\u792a
I4361
sV\u4e30
I2213
sV\u6ab3
I1560
sV\u9736
I6887
sV\u5238
I5610
sV\u5c3c
I1811
sV\u6640
I7174
sV\u8cc7
I1604
sV\u6a48
I2689
sV\u96cb
I4896
sV\u55cd
I4685
sV\u7e50
I6345
sV\u9ad3
I4287
sV\u8258
I4783
sV\u71e5
I4352
sV\u7be9
I5704
sV\u596a
I753
sV\u93f9
I4152
sV\u5efb
I3106
sV\u9dfd
I7048
sV\u6203
I5630
sV\u898a
I4656
sV\u548c
I1320
sV\u700f
I7017
sV\u9d92
I3696
sV\u6298
I228
sV\u881f
I4365
sV\u6f31
I2071
sV\u88b4
I3033
sV\u65c2
I3201
sV\u6fc6
I1744
sV\u8b49
I3486
sV\u69ca
I5623
sV\u504f
I2076
sV\u73ce
I4748
sV\u7dd2
I2025
sV\u9955
I6100
sV\u6e5b
I2335
sV\u81da
I6227
sV\u56e0
I1005
sV\u95e2
I2793
sV\u866b
I5667
sV\u99ea
I5443
sV\u64ec
I2753
sV\u806f
I3649
sV\u8a73
I3777
sV\u9477
I1752
sV\u80a5
I2720
sV\u5379
I5154
sV\u72f8
I6041
sV\u5d7d
I3856
sV\u8700
I1609
sV\u6085
I2127
sV\u6a89
I5000
sV\u520e
I2541
sV\u9f10
I5246
sV\u7895
I6369
sV\u9914
I4459
sV\u8299
I455
sV\u4f9b
I2058
sV\u8c9d
I1461
sV\u6a1e
I1916
sV\u7422
I4687
sV\u5da7
I6392
sV\u61af
I6151
sV\u4f30
I3004
sV\u6bb3
I5358
sV\u79bf
I2155
sV\u9a3e
I4563
sV\u6144
I5296
sV\u6b48
I2737
sV\u97cb
I3165
sV\u754c
I1272
sV\u91cf
I1400
sV\u58d5
I2713
sV\u7954
I5864
sV\u62d9
I1834
sV\u6cdd
I2422
sV\u76e1
I197
sV\u9760
I6504
sV\u9164
I5390
sV\u6c72
I1070
sV\u55f7
I1098
sV\u5ffb
I3131
sV\u707a
I6133
sV\u59ff
I1495
sV\u7a7e
I6204
sV\u8482
I4230
sV\u770b
I771
sV\u5f90
I1426
sV\u8517
I3663
sV\u6398
I3738
sV\u5025
I3873
sV\u9d27
I6310
sV\u5a29
I6361
sV\u642d
I5749
sV\u8fb0
I1851
sV\u56b6
I5806
sV\u50ba
I7041
sV\u7c3d
I5752
sV\u5abe
I1909
sV\u68ca
I4853
sV\u72ce
I2529
sV\u7cd2
I6429
sV\u6557
I4034
sV\u6f5b
I1726
sV\u80da
I4276
sV\u5be8
I6318
sV\u98ea
I5564
sV\u65ec
I1939
sV\u9577
I239
sV\u7dfc
I4308
sV\u8800
I6697
sV\u5d0e
I2602
sV\u9010
I157
sV\u8d99
I0
sV\u6f1a
I4004
sV\u5ca3
I7012
sV\u7126
I2415
sV\u95a9
I2980
sV\u8332
I1430
sV\u5c38
I3565
sV\u523c
I6837
sV\u76bf
I6394
sV\u6840
I2095
sV\u8cc3
I4451
sV\u6e44
I1243
sV\u98cb
I5590
sV\u9ecf
I3925
sV\u51d1
I7221
sV\u6dd9
I4776
sV\u4f5a
I4187
sV\u7fe5
I4316
sV\u6d6e
I1311
sV\u6372
I2907
sV\u7976
I6792
sV\u9df9
I1341
sV\u50fb
I4048
sV\u56ff
I3265
sV\u6c03
I3799
sV\u6207
I5165
sV\u8a17
I186
sV\u74a8
I3513
sS'\xb0'
I4521
sV\u6735
I3882
sV\u7d39
I4870
sV\u92bc
I7278
sV\u8941
I5697
sV\u8f45
I1768
sV\u8549
I3812
sV\u584b
I3660
sV\u9b4d
I5301
sV\u58e0
I4092
sV\u9be2
I1163
sV\u7267
I1782
sV\u91e6
I6694
sV\u886b
I3445
sV\u6aec
I5395
sV\u60f0
I5242
sV\u8473
I1943
sV\u66f4
I910
sV\u72fc
I486
sV\u6881
I98
sV\u5c0e
I3336
sV\u9714
I6934
sV\u6816
I1310
sV\u8c99
I5928
sV\u6e1a
I2247
sV\u829d
I2700
sV\u9ea5
I1435
sV\u7026
I5044
sV\u8232
I5396
sV\u533c
I3716
sV\u77bf
I272
sV\u6f44
I2786
sV\u83c7
I4306
sV\u6548
I2900
sV\u7b4c
I1644
sV\u50d1
I6130
sV\u6cd9
I4738
sV\u80e4
I5584
sV\u5a62
I3723
sV\u566a
I2461
sV\u8aed
I4227
sV\u4fef
I2419
sV\u57ff
I5437
sV\u747e
I6460
sV\u4f84
I7129
sV\u6307
I1193
sV\u8086
I3411
sV\u868a
I3729
sV\u5b8c
I3526
sV\u5190
I7018
sV\u7513
I6886
sV\u8b17
I2309
sV\u6d98
I3252
sV\u811b
I5191
sV\u5821
I5311
sV\u9d23
I2566
sV\u5e25
I4081
sV\u7fa4
I4959
sV\u6031
I5273
sV\u6635
I6989
sV\u7c39
I5956
sV\u723d
I2678
sV\u6ac2
I674
sV\u60c6
I1026
sV\u8449
I287
sV\u9a4d
I5509
sV\u9051
I3057
sV\u5553
I932
sV\u72d2
I5885
sV\u675f
I2449
sV\u7d63
I7234
sV\u5fe4
I5198
sV\u896b
I6610
sV\u96ea
I9
sV\u6bec
I922
sV\u67f4
I3601
sV\u5c79
I5255
sV\u527d
I5315
sV\u8a00
I331
sV\u6d85
I6817
sV\u6789
I1465
sV\u798d
I2680
sV\u980c
I1493
sV\u9210
I4392
sV\u5112
I2301
sV\u9414
I6723
sV\u6b16
I6891
sV\u819d
I49
sV\u671e
I5917
sS'\x85'
I4544
sV\u752a
I6765
sV\u5e38
I263
sV\u503c
I1617
sV\u74bf
I1792
sV\u973e
I2768
sV\u6fd9
I5288
sV\u7be1
I6154
sV\u5962
I3217
sV\u5366
I3426
sV\u77e9
I3436
sV\u6f6e
I1399
sV\u83f1
I1376
sV\u52fb
I4237
sV\u7d7a
I698
sV\u8386
I6643
sV\u7a0b
I3036
sV\u858a
I3253
sV\u7c0f
I6595
sV\u9192
I2871
sV\u6e98
I4347
sV\u821b
I6466
sV\u7aa0
I4675
sV\u7ca4
I6552
sV\u4fae
I4851
sV\u82b0
I4400
sV\u5bb6
I144
sV\u5dba
I1359
sV\u8b41
I3562
sV\u4e43
I528
sV\u63c6
I3392
sV\u994d
I3975
sV\u5c4f
I747
sV\u7fce
I4854
sV\u5653
I1627
sV\u71d2
I2286
sV\u4ed8
I2179
sV\u8dda
I6050
sV\u645f
I5283
sV\u5ae0
I2464
sV\u99e2
I3491
sV\u7067
I6033
sV\u93e6
I6518
sV\u8a6b
I6473
sV\u64f4
I6922
sV\u5f79
I559
sV\u947f
I1057
sV\u8b00
I2126
sV\u6c85
I2490
sV\u8d04
I3523
sV\u6689
I1264
sV\u788d
I5841
sV\u990c
I3043
sV\u9310
I3798
sV\u5012
I69
sS'\x9d'
I4502
sV\u661e
I6183
sV\u7822
I5924
sV\u96a9
I5572
sV\u6bab
I3263
sV\u742a
I2278
sV\u6daf
I1216
sV\u67b3
I4945
sV\u9a36
I2629
sV\u513c
I1869
sV\u6d44
I4499
sV\u6748
I7019
sV\u58cd
I6313
sV\u7350
I4558
sV\u97d3
I1687
sV\u7554
I2386
sV\u8f58
I3223
sV\u60dd
I6062
sV\u5862
I4899
sV\u76e9
I6831
sV\u9768
I3305
sV\u546a
I4036
sV\u6e6e
I4998
sV\u82f1
I108
sV\u7a76
I3686
sV\u7c7a
I5431
sV\u90fd
I200
sV\u767e
I423
sV\u8882
I1693
sV\u7b0b
I4335
sV\u5594
I5024
sV\u4e19
I5888
sV\u6f98
I5601
sV\u851f
I4722
sV\u7ba0
I4880
sV\u9127
I2134
sV\u89ac
I5291
sV\u4eae
I3642
sV\u7e39
I2330
sV\u91bc
I6751
sV\u56be
I4573
sV\u62c6
I2594
sV\u64ca
I1241
sV\u984d
I227
sV\u9455
I6453
sV\u6957
I7308
sV\u8ad6
I533
sV\u4fd8
I3325
sV\u8cda
I3487
sV\u5be0
I5300
sV\u7f63
I4977
sV\u98e2
I1078
sV\u7167
I14
sV\u69ec
I4939
sV\u5e79
I2021
sV\u71fc
I3292
sV\u7591
I316
sV\u9410
I6575
sV\u5712
I294
sV\u7395
I2620
sV\u9214
I5698
sV\u611e
I7081
sV\u9da1
I5239
sV\u6cab
I2785
sV\u732a
I4559
sV\u6c40
I3030
sV\u6a44
I6890
sV\u86c7
I1463
sV\u5fcd
I762
sV\u9acf
I3845
sV\u67dd
I6049
sV\u865c
I811
sV\u7de1
I5208
sV\u9c60
I2496
sV\u5f62
I2379
sV\u7be5
I4423
sV\u9a64
I2055
sV\u9068
I721
sV\u8fed
I5463
sV\u696e
I6282
sV\u6772
I3063
sV\u5ef7
I3144
sV\u7d76
I4634
sV\u52ff
I1164
sV\u6607
I2311
sV\u7c0b
I3521
sV\u838a
I1710
sV\u821f
I1283
sV\u6f2d
I5190
sV\u8eac
I986
sV\u98b8
I5168
sV\u773d
I6696
sV\u96bc
I4264
sV\u65c6
I4671
sV\u5c4b
I437
sV\u5053
I6421
sV\u8dd6
I4168
sV\u645b
I2568
sV\u8c6b
I679
sV\u6eec
I6051
sV\u8073
I2280
sV\u76fc
I1466
sV\u6c81
I4374
sV\u6089
I4556
sV\u8108
I3550
sV\u7e8d
I3048
sV\u9f0c
I5504
sV\u5612
I5481
sV\u4f97
I3797
sV\u7e22
I2930
sV\u722a
I959
sV\u6baf
I6458
sV\u5938
I3560
sV\u903e
I2847
sV\u87c7
I5172
sV\u6148
I2151
sV\u7f4c
I4470
sV\u52d5
I818
sV\u66dd
I2697
sV\u9d60
I2699
sV\u5e62
I4393
sV\u7ae5
I395
sV\u5466
I4153
sV\u526a
I720
sV\u686e
I2919
sV\u7a7a
I365
sV\u707e
I5265
sV\u7d0b
I3025
sV\u828a
I3023
sV\u5f8c
I76
sV\u7b0f
I5512
sV\u679c
I1586
sV\u7da0
I153
sV\u5a25
I2056
sV\u9727
I796
sV\u5029
I4240
sV\u71a8
I4678
sV\u6e2d
I389
sV\u85b0
I918
sV\u50be
I625
sV\u8c41
I645
sV\u6ec2
I5237
sV\u5d4b
I3250
sV\u62ca
I5240
sV\u78ce
I5360
sV\u9451
I3329
sV\u80de
I7097
sV\u5be4
I5552
sV\u8d6b
I96
sV\u92ea
I2751
sV\u6fec
I2264
sV\u8b6f
I3578
sV\u65f0
I3179
sV\u8173
I5107
sV\u63f4
I1776
sV\u9f77
I2796
sV\u5879
I2845
sV\u6f81
I2831
sV\u6389
I477
sV\u8208
I1422
sV\u7d8d
I4070
sV\u9c0c
I6525
sV\u7791
I4072
sV\u9014
I1536
sV\u8b99
I3567
sV\u859d
I5111
sV\u7d22
I1478
sV\u99a5
I2467
sV\u7726
I4796
sV\u93a9
I2669
sV\u6eab
I2202
sV\u68af
I1475
sS'\x89'
I4533
sV\u8532
I5788
sV\u543c
I3862
sV\u4fc1
I4772
sV\u6844
I6278
sV\u6248
I999
sV\u5dcd
I3433
sV\u7c4c
I1829
sV\u8a58
I7165
sV\u7fe1
I876
sV\u5766
I2509
sV\u73e9
I6225
sV\u6572
I3021
sV\u9bf9
I5043
sV\u8d82
I3678
sV\u7e0b
I6747
sV\u818a
I3780
sV\u5c8c
I3354
sV\u9592
I3405
sV\u9a23
I2996
sV\u72a8
I6560
sV\u8cac
I3801
sV\u6731
I55
sV\u86b0
I4698
sV\u808b
I6815
sS'\xb4'
I4524
sV\u9ab8
I2969
sV\u8349
I295
sV\u61ca
I6540
sV\u584f
I6826
sV\u75d2
I6073
sV\u9155
I7222
sV\u6c57
I2656
sV\u665b
I6218
sV\u89da
I4866
sV\u58e4
I1337
sV\u6cec
I4106
sV\u66f0
I2842
sV\u60f4
I6105
sV\u967b
I6856
sV\u907f
I2165
sV\u6885
I236
sV\u6289
I3703
sV\u8308
I5892
sV\u5412
I3988
sV\u9114
I6653
sV\u621e
I7236
sV\u5ba3
I1321
sV\u55a7
I1713
sV\u7626
I4223
sV\u7db7
I6896
sV\u77bb
I2486
sV\u553c
I6012
sV\u4ec1
I569
sV\u6f40
I4919
sV\u56d1
I5183
sV\u50d5
I2070
sV\u4e56
I2298
sV\u8b58
I311
sV\u9f60
I6362
sV\u5c62
I1717
sV\u78e5
I5923
sV\u5666
I6474
sV\u72e9
I3363
sV\u506a
I5313
sV\u8ced
I2034
sV\u5df7
I2746
sV\u9af9
I5906
sV\u6b03
I5539
sV\u8c82
I1357
sS'\x8a'
I4537
sV\u7313
I7218
sV\u6b98
I340
sV\u659c
I1394
sV\u9b23
I3848
sV\u5229
I2765
sV\u6631
I7172
sV\u6035
I3319
sV\u81b4
I4642
sV\u5eb6
I1739
sV\u7a39
I6139
sV\u95bc
I4362
sV\u52be
I5353
sV\u6cc2
I6612
sV\u8845
I7025
sV\u66c6
I1923
sV\u594f
I653
sV\u9651
I6745
sV\u5353
I2168
sV\u9055
I1849
sV\u615f
I623
sV\u82de
I2270
sV\u5fe0
I2063
sV\u59e4
I7107
sV\u7567
I3490
sV\u53e8
I1622
sV\u6dec
I4185
sV\u896f
I4194
sV\u67f0
I5983
sV\u8373
I5440
sV\u9d77
I2194
sV\u7bf8
I5785
sV\u547d
I831
sV\u75fc
I4021
sV\u7181
I4600
sV\u9000
I1409
sV\u5f0a
I2236
sV\u820c
I1479
sV\u8810
I6769
sV\u8e14
I6966
sV\u771a
I6822
sV\u70ab
I3221
sV\u6f2a
I4494
sV\u5830
I4443
sV\u7cb3
I3595
sV\u9b32
I5106
sV\u873a
I5362
sV\u7040
I5599
sV\u9ac7
I5612
sV\u5dc9
I1049
sV\u6850
I764
sV\u8cd3
I523
sV\u6e54
I4462
sV\u7bdd
I6617
sV\u67e5
I5070
sV\u8664
I7079
sV\u6de9
I4619
sV\u4f6a
I4633
sV\u756e
I4373
sV\u99f1
I6654
sV\u7b72
I2851
sV\u6176
I682
sV\u85f9
I3067
sV\u4eff
I2703
sV\u5080
I3972
sV\u7403
I2525
sV\u5c88
I5834
sV\u660f
I1519
sV\u6c13
I3378
sV\u8b92
I1936
sV\u4e94
I67
sV\u7498
I6274
sV\u5b1d
I7241
sV\u60a0
I1807
sV\u8a27
I6106
sV\u55ae
I484
sV\u7931
I5118
sV\u9eb4
I3568
sV\u6539
I1156
sV\u84b8
I3463
sV\u6b3d
I2844
sV\u8abc
I2607
sV\u73c2
I3664
sV\u7fca
I3362
sV\u65ce
I5773
sV\u6bd2
I1052
sV\u5adc
I5334
sV\u83e2
I6979
sV\u8fea
I7121
sV\u536d
I4828
sV\u8277
I4630
sV\u7081
I6571
sV\u9704
I527
sV\u5806
I276
sV\u7c89
I2222
sV\u9d08
I2424
sV\u8910
I2271
sV\u8f14
I2642
sV\u7c1e
I5570
sS'\xa1'
I4540
sV\u6222
I1137
sV\u8ca9
I3914
sV\u942e
I2944
sV\u7db3
I4485
sV\u8036
I1301
sV\u69bb
I2734
sV\u863a
I4114
sV\u50c1
I7356
sV\u95c3
I4167
sV\u56c5
I6754
sV\u87cf
I1544
sV\u4ed5
I2646
sV\u6f54
I1263
sV\u7add
I4057
sV\u60e1
I1882
sV\u8160
I6072
sV\u98f1
I4247
sV\u5df3
I3422
sV\u667a
I2128
sV\u6c7e
I2794
sV\u5180
I1758
sV\u7503
I2864
sV\u7b07
I6040
sV\u670f
I7360
sV\u4f94
I3338
sV\u7b9c
I5702
sV\u8523
I2347
sV\u722d
I507
sV\u93ac
I3466
sV\u7e35
I2
sV\u6a3d
I1012
sV\u9041
I1741
sV\u72c2
I2272
sV\u9c49
I5701
sV\u64ce
I3220
sV\u8e55
I3191
sV\u795b
I5192
sV\u7f5f
I4887
sV\u6563
I490
sV\u82e2
I6928
sV\u6b67
I4825
sV\u8377
I1282
sV\u897b
I7298
sV\u5102
I1343
sV\u7f89
I6729
sV\u800c
I1691
sV\u6b91
I7078
sV\u8a10
I5236
sV\u6d95
I2053
sV\u7316
I3393
sV\u5a9b
I5594
sV\u751a
I780
sV\u6d2a
I2267
sV\u502c
I6926
sV\u8336
I3640
sV\u6abb
I1697
sV\u6cbf
I2178
sV\u8f3e
I4725
sV\u7240
I233
sV\u55c5
I4197
sV\u98c7
I6475
sV\u5fc9
I4484
sV\u604c
I6724
sV\u84cf
I6678
sV\u6a50
I1906
sV\u6c54
I7068
sV\u9658
I5228
sV\u63e1
I781
sV\u65e5
I125
sV\u6fe9
I3538
sV\u91ed
I4377
sV\u5ef3
I1975
sV\u7972
I3403
sV\u6376
I5276
sV\u87f9
I2507
sV\u6f7e
I5555
sV\u5484
I2618
sV\u9d8a
I6425
sV\u640f
I1700
sV\u9017
I3954
sV\u64a4
I6284
sV\u8827
I6733
sV\u712d
I6251
sV\u7b31
I6605
sV\u9ab0
I4260
sV\u59b2
I5325
sV\u7d35
I1510
sV\u693d
I4217
sV\u7bc6
I3164
sV\u7dca
I1041
sV\u67ce
I7148
sV\u95da
I6916
sV\u7c5f
I1956
sV\u8dea
I2090
sV\u516d
I270
sV\u5b71
I2562
sV\u7cf4
I6677
sV\u8077
I1903
sV\u66f8
I111
sV\u68fc
I6217
sV\u7281
I4840
sV\u5002
I6003
sV\u7485
I6621
sV\u9f08
I4448
sV\u5c0a
I2197
sV\u608d
I5496
sV\u8b10
I2790
sV\u8d14
I5474
sV\u5197
I3919
sV\u9699
I1913
sV\u5b9b
I1339
sV\u741a
I5718
sV\u7e1e
I2552
sV\u82a1
I5281
sV\u8ea9
I640
sV\u73ab
I4234
sV\u962e
I2005
sV\u5b30
I2368
sV\u8236
I2336
sV\u6bbb
I4800
sV\u6dbf
I4664
sV\u52c1
I3296
sV\u5ec9
I2231
sV\u614c
I6947
sV\u85cf
I38
sV\u6b50
I5425
sV\u8fd3
I6780
sV\u5256
I2007
sV\u995c
I4860
sV\u5e5e
I6636
sV\u64e5
I4256
sV\u8564
I2370
sV\u53eb
I3744
sV\u90ed
I1671
sV\u6276
I1091
sV\u647a
I7015
sV\u88fd
I1427
sV\u9082
I4657
sV\u5584
I1009
sV\u5f88
I6952
sV\u650f
I6300
sV\u6f13
I5046
sV\u8892
I6355
sV\u799c
I6224
sV\u9d1f
I2706
sV\u63a0
I3961
sV\u65a4
I2947
sV\u8927
I6857
sV\u6fa8
I5560
sV\u91ac
I3901
sV\u56ae
I5337
sV\u7a31
I1690
sV\u9db4
I1223
sV\u683d
I2890
sV\u5947
I1361
sV\u7cca
I4442
sV\u4f53
I6651
sV\u68d2
I3143
sV\u8c55
I1476
sV\u7157
I6498
sV\u59dc
I4603
sV\u9ede
I1194
sV\u8ae6
I4220
sV\u8cea
I1328
sV\u71ec
I6322
sV\u7df4
I1372
sV\u5d06
I2141
sV\u9808
I904
sV\u678d
I6555
sV\u7516
I4900
sV\u5a9f
I7021
sV\u89a9
I1082
sV\u74ab
I3242
sV\u72af
I830
sV\u6cbb
I3190
sV\u893e
I3941
sV\u55c1
I7137
sV\u7440
I4735
sV\u90c3
I6834
sV\u59c9
I4341
sV\u84cb
I713
sV\u6c50
I6829
sV\u88d3
I3868
sV\u5556
I54
sV\u9058
I6467
sV\u535a
I1250
sV\u65e1
I4787
sV\u8460
I5889
sV\u8264
I6054
sV\u69e9
I6801
sV\u8868
I2733
sV\u97ed
I3907
sV\u716e
I3639
sV\u7f72
I2974
sV\u637a
I3727
sV\u8ffd
I1256
sV\u5480
I4623
sV\u7003
I6268
sV\u5284
I6987
sV\u5f1d
I5786
sV\u7e9c
I3278
sV\u68a8
I874
sV\u7d31
I2022
sV\u80b8
I3534
sV\u5043
I1568
sV\u9949
I5855
sV\u7657
I7329
sV\u95d6
I7290
sV\u93da
I3498
sV\u7a5f
I5810
sV\u99de
I4565
sV\u6063
I1720
sV\u87e2
I5886
sV\u6e67
I1123
sV\u76ec
I6371
sV\u7cf0
I6777
sV\u60f8
I2463
sV\u8a7f
I6870
sV\u7481
I5637
sV\u9304
I4826
sV\u668d
I5406
sV\u8d10
I6412
sV\u8b14
I1141
sV\u5797
I4667
sV\u9099
I2895
sV\u5d9b
I6818
sV\u721a
I6413
sV\u9e9d
I3966
sV\u82a5
I4327
sV\u75ab
I5814
sV\u902e
I3320
sV\u79b3
I6356
sV\u5b34
I61
sV\u67b7
I5181
sV\u4f3c
I788
sV\u6bbf
I878
sV\u54c1
I3370
sV\u91c3
I6569
sV\u52c5
I6331
sV\u7344
I669
sV\u7948
I3609
sV\u85cb
I6500
sV\u674c
I3865
sV\u6b54
I4868
sV\u70d9
I4574
sV\u585e
I404
sV\u64e1
I4402
sV\u96ed
I6752
sV\u53ef
I221
sV\u9af5
I5948
sV\u6476
I4375
sV\u5384
I1863
sS'\x8e'
I4547
sV\u8e92
I6559
sV\u5019
I1895
sV\u9d1b
I880
sV\u5e1d
I216
sV\u7f9c
I5971
sV\u9b1f
I2722
sV\u8123
I3788
sV\u8f27
I6066
sV\u97ac
I4487
sV\u5143
I602
sV\u76c2
I4381
sV\u9245
I5241
sV\u7aca
I1941
sV\u8a55
I5054
sV\u51d8
I6810
sV\u7d5b
I3474
sV\u6163
I3685
sV\u8ce6
I1007
sV\u566d
I5328
sV\u5c71
I406
sV\u7bf4
I6484
sV\u61f8
I1785
sV\u840c
I3111
sV\u8e10
I1249
sV\u6995
I6346
sV\u8814
I7309
sV\u711a
I686
sV\u589f
I1629
sV\u7b1e
I4284
sV\u6522
I510
sV\u6f26
I5039
sV\u542c
I5309
sV\u70af
I2675
sV\u932e
I4883
sV\u7ab3
I5556
sV\u5834
I729
sV\u6ebb
I6308
sV\u8b3e
I3785
sV\u92c3
I5305
sV\u80cf
I6169
sV\u6854
I1745
sV\u515a
I6229
sV\u7ddd
I697
sV\u736e
I2205
sV\u7d72
I763
sV\u4efb
I573
sV\u5680
I3891
sV\u7c07
I3477
sV\u600f
I4662
sV\u838e
I411
sV\u6a13
I360
sV\u5319
I4243
sV\u9e1b
I2338
sV\u981f
I5193
sV\u60a4
I5363
sV\u9eb0
I6951
sV\u6339
I4784
sV\u82b8
I3644
sV\u6d3d
I1904
sV\u8cbc
I4564
sV\u9741
I7005
sV\u5243
I4309
sV\u63ce
I6507
sV\u6dd2
I1226
sV\u7457
I5290
sV\u52d8
I4454
sV\u6263
I3103
sV\u6c67
I5418
sV\u8fe6
I3933
sV\u906f
I3454
sV\u5f71
I337
sV\u78f4
I1047
sV\u8477
I4388
sV\u8e7b
I5927
sV\u887f
I2239
sV\u7681
I4413
sV\u9700
I3369
sV\u9104
I6447
sV\u5e06
I2084
sV\u580a
I6779
sV\u7616
I5737
sV\u701a
I836
sV\u6422
I5500
sS'\xa5'
I4545
sV\u6e26
I5038
sV\u682a
I2357
sV\u5f30
I7212
sV\u9c32
I4566
sV\u65b7
I457
sV\u69bf
I5062
sV\u8a3e
I5143
sV\u7740
I3009
sV\u93c3
I5153
sV\u50c5
I5559
sV\u9dc7
I5727
sV\u5ac9
I3752
sV\u87cb
I1546
sV\u72d9
I5544
sV\u505a
I7128
sV\u7cdd
I3051
sV\u9d5c
I4709
sV\u66e1
I5686
sV\u8760
I5823
sV\u6ae9
I6432
sV\u6676
I844
sV\u82f9
I5561
sV\u8cfd
I4063
sV\u7d07
I5835
sV\u5b88
I1120
sV\u670b
I1675
sV\u610f
I77
sV\u828e
I4592
sV\u7d9c
I7042
sV\u61a4
I648
sV\u95ac
I942
sV\u7e31
I100
sV\u99b4
I2670
sV\u8dbc
I5446
sV\u9641
I4474
sV\u5343
I27
sV\u5d47
I1640
sV\u78ca
I3039
sV\u96d6
I494
sV\u7f5b
I6008
sV\u795f
I5476
sV\u976b
I5597
sV\u7ff0
I1707
sV\u5875
I133
sV\u8577
I5355
sV\u6dfc
I2825
sV\u897f
I293
sV\u7981
I995
sV\u7f85
I583
sV\u5106
I6252
sV\u6b8d
I5900
sV\u6191
I934
sV\u8010
I1374
sV\u6795
I749
sV\u89a1
I6091
sV\u85a9
I3776
sV\u672a
I249
sV\u5a2c
I6906
sV\u9332
I6736
sV\u5634
I4958
sV\u8936
I5805
sV\u853e
I4101
sV\u5fc5
I2232
sV\u7e44
I4028
sV\u88cb
I5322
sV\u8ecf
I5073
sV\u6050
I1113
sV\u555e
I4864
sV\u8e64
I1317
sV\u65e9
I288
sV\u58eb
I94
sV\u7d6e
I1304
sV\u91f1
I4971
sV\u7372
I2516
sV\u97f5
I6343
sV\u6f7a
I2799
sV\u83fd
I4303
sV\u5880
I1934
sV\u7c03
I7020
sV\u7207
I5445
sV\u9186
I4262
sV\u5488
I6742
sV\u6413
I6046
sV\u5d19
I4044
sV\u7c98
I4022
sV\u531d
I3717
sV\u68a0
I5910
sV\u7b2d
I5965
sV\u5dae
I5177
sV\u7131
I6882
sV\u53b2
I2709
sV\u96b4
I782
sV\u6d39
I6852
sV\u8cb8
I3509
sV\u633d
I3591
sV\u82bc
I6977
sV\u9941
I7159
sV\u9f45
I6902
sV\u5247
I1902
sV\u8b4d
I6009
sV\u4e4f
I2253
sV\u8151
I4594
sV\u63d2
I176
sV\u8755
I335
sV\u7a57
I2925
sV\u95de
I7145
sV\u4ee4
I208
sV\u986b
I4579
sV\u87ea
I2915
sV\u5171
I971
sV\u76f4
I307
sV\u7881
I4465
sV\u5006
I3546
sV\u7489
I5441
sV\u8b0c
I4892
sV\u5b97
I554
sV\u7e1a
I4957
sV\u79ab
I7164
sV\u7faf
I4915
sV\u75b3
I4604
sV\u6bb7
I2533
sV\u8836
I1138
sV\u67bf
I5063
sV\u58c1
I256
sV\u7940
I3337
sV\u9dc3
I5571
sV\u7f44
I1831
sV\u93c7
I6506
sV\u54c9
I1815
sV\u6b4c
I609
sV\u8960
I6634
sV\u8f64
I4113
sV\u8568
I2781
sV\u9aed
I3476
sV\u7272
I5486
sV\u6876
I7285
sV\u82fd
I6488
sV\u5588
I5195
sV\u968a
I4378
sV\u6f0f
I2413
sV\u8c8e
I6716
sV\u8292
I506
sV\u7d98
I7000
sV\u521d
I225
sV\u6fa4
I1462
sV\u7635
I3100
sV\u4eba
I26
sV\u5347
I2605
sV\u76ca
I1566
sV\u4f4f
I2320
sV\u62d2
I2889
sV\u8655
I633
sV\u5dd8
I1529
sV\u775f
I3499
sV\u6d63
I2726
sV\u6367
I2578
sS'\xe6'
I4501
sV\u5a6d
I5466
sV\u8b77
I1186
sV\u9a00
I5394
sV\u5306
I6001
sV\u4f0e
I3545
sV\u8210
I3884
sV\u6595
I4928
sV\u529b
I608
sV\u7d1a
I4954
sV\u652a
I3580
sV\u5230
I1309
sV\u9132
I87
sV\u4e38
I1231
sV\u64bf
I6174
sV\u7a40
I2250
sV\u9ec3
I137
sV\u90c7
I7288
sV\u8acb
I2091
sV\u6250
I6358
sV\u905c
I4845
sV\u8a60
I1425
sV\u6de5
I851
sV\u67e9
I6177
sV\u5aeb
I5876
sV\u99ed
I2478
sV\u5cef
I1508
sV\u7f6e
I1587
sV\u8ff9
I3056
sV\u677e
I1004
sV\u6c0f
I785
sV\u6613
I205
sV\u9817
I1615
sV\u7e98
I6363
sV\u6aa0
I6683
sV\u8e23
I3228
sV\u66a8
I5713
sV\u5fae
I866
sV\u7331
I715
sV\u51b2
I4768
sV\u613d
I5548
sS'\xbc'
I4515
sV\u9b41
I4911
sV\u5e43
I1202
sV\u5047
I2209
sV\u9749
I3689
sV\u75ca
I4221
sV\u894d
I6360
sV\u6fce
I6616
sV\u8351
I4610
sV\u8555
I3913
sV\u9bd6
I6715
sV\u725b
I489
sV\u745f
I2325
sV\u97de
I4643
sV\u6067
I5458
sV\u85ea
I3734
sV\u596d
I6904
sV\u78ec
I3160
sV\u5371
I1220
sV\u9673
I1418
sV\u74f4
I5232
sV\u8877
I3189
sV\u6ef8
I1188
sV\u7a81
I1230
sV\u5802
I532
sV\u5206
I812
sV\u9708
I2992
sV\u540a
I5731
sV\u890c
I4715
sV\u6291
I1924
sV\u6495
I6701
sV\u8514
I5112
sV\u559f
I5828
sV\u761e
I6141
sV\u8aa1
I2676
sV\u6822
I3781
sV\u86a9
I3077
sV\u642a
I5470
sV\u77b3
I150
sV\u9032
I1759
sV\u69b7
I5031
sV\u8a36
I3948
sV\u4f38
I2442
sV\u63bb
I6760
sV\u65bf
I5640
sV\u5ac1
I3464
sV\u7d44
I1654
sV\u91c7
I717
sV\u56c9
I3930
sV\u8dcf
I6795
sV\u6350
I2000
sV\u70dd
I4149
sV\u565e
I5728
sV\u6ce5
I916
sV\u8d64
I513
sV\u66e9
I1639
sV\u8768
I1580
sV\u5beb
I2217
sV\u98ed
I3376
sV\u57f3
I6449
sV\u8ef9
I5868
sV\u6c7a
I1996
sV\u80fd
I110
sV\u5d84
I4865
sV\u6d0f
I6146
sV\u6713
I2181
sV\u9917
I5565
sV\u5e19
I1662
sV\u782d
I6980
sV\u99ac
I16
sV\u93b0
I1414
sV\u50b2
I1512
sV\u7435
I2435
sV\u9a41
I6973
sV\u5147
I488
sV\u74ca
I948
sV\u884d
I3423
sV\u6ece
I4298
sV\u8251
I6052
sV\u7957
I767
sV\u9ad6
I6557
sV\u5fd8
I2101
sV\u51dc
I1971
sV\u96de
I412
sV\u6167
I3869
sV\u82e6
I558
sV\u84ea
I5688
sV\u79ec
I6835
sV\u9d6f
I6690
sV\u9773
I4043
sV\u5475
I1857
sV\u4e79
I6903
sV\u837b
I3620
sV\u61fc
I2051
sV\u9a04
I2054
sV\u9008
I2801
sV\u530a
I5340
sV\u6f8d
I4148
sV\u6591
I1262
sV\u8410
I5683
sV\u5e97
I3134
sV\u9999
I104
sV\u529f
I223
sV\u6f22
I126
sV\u81a9
I3881
sV\u5e2c
I4305
sV\u992e
I7286
sV\u5430
I7326
sV\u70b3
I2983
sV\u9732
I840
sV\u64bb
I5294
sV\u813e
I4343
sV\u7c40
I5919
sV\u98c3
I6798
sV\u5bc5
I4257
sV\u96c7
I3998
sV\u51c9
I4577
sV\u6e4c
I5066
sV\u8acf
I7200
sV\u6450
I5248
sV\u9858
I262
sV\u5b5a
I3321
sV\u77dd
I4649
sV\u965c
I6352
sV\u6de1
I2788
sV\u617e
I5075
sV\u7607
I5930
sV\u6c0b
I3800
sV\u4e8c
I92
sV\u5919
I2228
sV\u571d
I6630
sV\u769c
I7022
sV\u8627
I4811
sV\u7531
I178
sV\u6939
I2994
sV\u673d
I2914
sV\u9d41
I5133
sV\u9b45
I2839
sV\u5647
I3753
sV\u9149
I4334
sV\u73ca
I2945
sV\u8f4d
I2097
sV\u69ce
I2830
sV\u9dd6
I4097
sV\u58d8
I2810
sV\u745b
I6272
sV\u725f
I5002
sV\u8fe2
I1213
sV\u5f6d
I1669
sV\u5375
I5049
sV\u72f4
I6096
sV\u66fc
I4239
sV\u5e02
I201
sV\u7a85
I2595
sV\u520a
I4188
sV\u6491
I4747
sV\u6295
I1554
sV\u5f97
I462
sV\u7a1a
I2159
sV\u539f
I737
sV\u8ca1
I2240
sV\u8aa5
I5898
sV\u6426
I5960
sS'\xa9'
I4504
sV\u7dab
I4962
sV\u622a
I3002
sV\u982e
I6165
sV\u71b3
I4225
sV\u9632
I3285
sV\u8a3a
I7091
sV\u7d40
I6370
sV\u99c3
I5338
sV\u50c9
I6296
sV\u8dcb
I5244
sV\u4ecd
I1692
sV\u9958
I5893
sV\u5a5a
I2331
sV\u76dd
I4420
sV\u975c
I1289
sV\u6ce1
I4495
sV\u5deb
I2393
sV\u786e
I7075
sV\u7672
I6208
sV\u6c76
I2326
sV\u88f9
I2685
sV\u9e82
I7232
sV\u5b84
I5682
sV\u7707
I2395
sV\u6d0b
I3127
sV\u9f17
I6586
sV\u5819
I4169
sV\u6ba4
I4936
sV\u61a8
I5756
sV\u7e2d
I6238
sV\u58ae
I854
sV\u7431
I3168
sV\u56b2
I4439
sV\u7235
I4086
sV\u6839
I458
sV\u9a45
I1288
sV\u5747
I3410
sV\u8451
I977
sV\u755b
I6855
sV\u57dc
I6044
sV\u6963
I5099
sV\u7fec
I4904
sV\u9b6f
I1247
sV\u5471
I6424
sV\u75f0
I4384
sV\u5275
I3259
sV\u9e00
I7206
sV\u7389
I120
sV\u6791
I6234
sV\u6726
I3656
sV\u83a9
I5628
sV\u9b2e
I6680
sV\u8f36
I1705
sV\u53c9
I3996
sV\u7248
I2856
sV\u8ecb
I4972
sV\u88cf
I143
sV\u82d3
I4133
sV\u5f56
I5482
sV\u7bd9
I2833
sV\u595a
I3262
sV\u535e
I3088
sV\u6fe1
I4793
sV\u8e60
I7353
sV\u69e5
I7344
sV\u8864
I7106
sV\u63e9
I5715
sV\u8268
I5939
sV\u58ef
I93
sV\u7b6e
I3768
sV\u52f3
I1597
sV\u91f5
I3053
sV\u5e80
I6134
sV\u9d82
I5851
sV\u7407
I5912
sV\u5288
I5147
sV\u8b8e
I637
sV\u5b19
I6556
sV\u7a98
I4933
sV\u749c
I3304
sV\u901f
I929
sV\u6ea0
I6021
sV\u8a23
I2446
sV\u62a8
I6606
sV\u5bae
I127
sV\u96b0
I3175
sV\u90b4
I4358
sV\u4fb6
I3107
sV\u6b39
I3166
sV\u84bc
I566
sV\u4e4b
I436
sV\u65d2
I3344
sV\u8155
I3443
sV\u93de
I3437
sV\u6467
I357
sV\u81ea
I432
sV\u986f
I3093
sV\u5771
I5456
sV\u5175
I517
sV\u6af8
I7275
sV\u867b
I6593
sV\u807f
I6381
sV\u7e81
I6273
sV\u5606
I1589
sV\u6c8d
I5341
sV\u6691
I704
sV\u579b
I5611
sV\u8ea1
I1960
sV\u82a9
I4578
sV\u602a
I1149
sV\u9a2e
I1234
sV\u5730
I129
sV\u73b3
I2950
sV\u6db7
I3859
sV\u67bb
I2707
sV\u5ec1
I3627
sV\u58c5
I4095
sV\u95c7
I4020
sV\u52c9
I1523
sV\u6750
I2948
sV\u83d3
I6197
sV\u9b58
I6221
sV\u585a
I3745
sV\u5feb
I2899
sV\u53f3
I2118
sV\u7472
I4615
sV\u90f5
I4966
sV\u84fd
I5278
sV\u5f80
I1386
sV\u5984
I3809
sV\u9686
I3184
sV\u908a
I147
sV\u7b98
I7216
sV\u541d
I5210
sV\u6fa0
I4809
sV\u63a8
I1032
sV\u9dac
I5462
sV\u5aae
I6102
sV\u7035
I7028
sV\u91b4
I2660
sV\u6a39
I325
sV\u643d
I7133
sV\u5b43
I3939
sV\u76c6
I2016
sV\u9249
I5537
sV\u64d2
I2305
sV\u9ed6
I6203
sV\u5bd8
I6608
sV\u775b
I3761
sV\u98da
I4669
sV\u55dc
I4251
sV\u4fe0
I102
sV\u6b63
I1205
sV\u8ce2
I981
sV\u6567
I6249
sV\u86e6
I6698
sV\u5c6d
I5475
sV\u7dec
I1774
sV\u77f0
I3328
sV\u8d77
I822
sV\u6bf8
I5648
sV\u817f
I6647
sV\u6302
I545
sV\u8a87
I1592
sV\u750e
I3892
sV\u6297
I2574
sV\u6e9f
I1122
sV\u9020
I1908
sV\u74a3
I1793
sV\u6e34
I2400
sV\u95b9
I3725
sV\u58bb
I4718
sV\u7a3c
I3522
sV\u8946
I5170
sV\u73cd
I1273
sV\u524c
I2834
sV\u79d1
I1800
sV\u7fd5
I593
sV\u5e54
I2955
sV\u82d7
I2523
sV\u88db
I5417
sV\u8edf
I4199
sV\u51e1
I1626
sV\u7f6a
I656
sV\u8870
I1348
sV\u6cf3
I3062
sV\u8e74
I643
sV\u72f7
I4736
sV\u5176
I353
sV\u78fb
I2256
sV\u8101
I6006
sV\u6684
I2964
sV\u6c88
I755
sV\u500b
I1379
sV\u9911
I5980
sV\u7890
I7072
sV\u9f15
I4261
sV\u7e94
I3863
sV\u6519
I2965
sV\u6b1d
I4635
sV\u7121
I243
sV\u7725
I5277
sV\u5ca8
I5911
sV\u6bb2
I3555
sV\u983b
I1403
sV\u7dbe
I3683
sV\u86c4
I2916
sV\u8cc8
I1177
sV\u4fca
I2274
sV\u92cc
I6796
sV\u5bd2
I207
sV\u9ed4
I4267
sV\u8559
I409
sV\u64d8
I4241
sV\u6adc
I3541
sV\u4e5f
I2263
sV\u9161
I4259
sV\u76e4
I314
sV\u9d69
I4457
sV\u7579
I4059
sV\u9dfe
I6907
sV\u918b
I4597
sV\u528d
I2556
sV\u978f
I3366
sV\u5e95
I824
sV\u699b
I4163
sV\u6f9f
I6554
sV\u9120
I5013
sV\u75a3
I4340
sV\u9724
I4215
sV\u5826
I1661
sV\u9d28
I3902
sV\u82ad
I4204
sV\u6930
I4682
sV\u6f34
I4920
sV\u7538
I3335
sV\u59bb
I622
sV\u8846
I1738
sV\u6cc9
I388
sV\u8e4a
I1468
sV\u78d1
I5677
sV\u5950
I6833
sV\u665a
I302
sV\u6c5e
I5977
sV\u7262
I3816
sV\u5ce9
I4872
sV\u7e6a
I4688
sV\u67ef
I1645
sV\u6df3
I666
sV\u5076
I1157
sV\u79fb
I616
sV\u7fff
I6937
sV\u8001
I301
sV\u6180
I5880
sV\u8605
I2938
sV\u6d88
I797
sV\u510b
I5229
sV\u920d
I3912
sV\u9811
I1257
sV\u9e15
I5620
sV\u7f94
I5397
sV\u8096
I678
sV\u6a1d
I5776
sV\u8c9e
I1367
sV\u51a0
I469
sV\u7625
I5895
sV\u57a4
I5857
sV\u7c29
I5932
sV\u812b
I47
sV\u9eaa
I4401
sV\u872f
I7039
sV\u64ae
I6543
sV\u5439
I863
sV\u993b
I6658
sV\u76ba
I5518
sV\u7cbe
I348
sV\u81c0
I3967
sV\u87c4
I3150
sV\u6b47
I443
sV\u4eca
I124
sV\u93cc
I5058
sV\u99d0
I1097
sV\u7d53
I7161
sV\u9061
I5105
sV\u71e0
I3123
sV\u5563
I4598
sV\u7de8
I1995
sV\u84ee
I2187
sV\u55f8
I6257
sV\u7a7d
I5762
sV\u6d0a
I5586
sV\u518d
I452
sV\u9e93
I3953
sV\u78a7
I1147
sV\u5d2a
I4750
sV\u6c34
I206
sV\u50b7
I297
sV\u65c5
I2318
sV\u6fc9
I7139
sV\u4e48
I7064
sV\u9952
I1175
sV\u8adb
I3791
sV\u6f5e
I3377
sV\u53e1
I3434
sV\u96e3
I451
sV\u7162
I6064
sV\u55e5
I6377
sV\u98e7
I5065
sV\u7b66
I5030
sV\u7d6a
I4307
sV\u64ef
I4644
sV\u8a70
I3531
sV\u9678
I1852
sV\u8301
I4874
sV\u6280
I3419
sV\u8f09
I1620
sV\u6e88
I6686
sV\u540f
I953
sV\u7c94
I5125
sV\u8396
I2932
sV\u52a0
I957
sV\u91a2
I2065
sV\u7525
I1825
sV\u54a4
I728
sV\u5ea8
I7338
sV\u822b
I3157
sV\u842f
I7027
sV\u67ae
I6188
sV\u7fbe
I6945
sV\u6643
I3247
sV\u84c4
I1839
sV\u724b
I4456
sV\u57ce
I99
sV\u9ad0
I7346
sV\u59d2
I3489
sV\u8759
I5822
sV\u74e4
I4195
sV\u9f69
I3694
sV\u7779
I5095
sV\u58fc
I4821
sV\u4e89
I4710
sV\u6c0a
I4411
sV\u508d
I1039
sV\u958f
I3367
sV\u7812
I7104
sV\u8718
I5627
sV\u6b9b
I6666
sV\u4e1e
I2987
sV\u5022
I7255
sV\u612c
I5904
sV\u51b7
I1294
sV\u96b9
I7183
sV\u7738
I4246
sV\u64c5
I2986
sV\u8a46
I7125
sV\u6ec9
I4778
sV\u514c
I7267
sV\u5b50
I402
sV\u9852
I2865
sV\u8ddf
I4944
sV\u54e5
I2060
sV\u5ee9
I4493
sV\u8b70
I3597
sV\u8d74
I2822
sV\u9778
I6646
sV\u5e7e
I463
sV\u8201
I4277
sV\u6380
I4914
sV\u8e09
I5596
sV\u6f88
I3359
sV\u900d
I2888
sV\u550f
I5708
sV\u9a11
I5829
sV\u7b90
I5064
sV\u5f13
I473
sV\u9c15
I2836
sV\u681d
I5225
sV\u8e9e
I2898
sV\u53a0
I6260
sV\u90a2
I2904
sV\u7425
I4382
sV\u5fa8
I2704
sV\u832b
I1085
sV\u852f
I7270
sV\u66ae
I1152
sV\u8f33
I6676
sV\u68b2
I4131
sV\u5639
I4076
sV\u9b3b
I5479
sV\u74ba
I5802
sV\u9d3f
I4852
sV\u83c0
I6470
sV\u91cc
I28
sV\u754f
I958
sV\u58d2
I6162
sV\u8659
I5641
sV\u67d8
I1657
sV\u885d
I1036
sV\u73e0
I170
sV\u5967
I3314
sV\u606d
I987
sV\u6702
I6063
sV\u8e87
I2532
sV\u6b0a
I2172
sV\u5b95
I5534
sV\u6697
I255
sV\u8018
I4842
sV\u6c9b
I2736
sV\u8e1c
I6638
sV\u6a9f
I7156
sV\u5d26
I5040
sV\u5b2a
I5182
sV\u87ad
I3569
sV\u5abf
I1767
sV\u65c1
I1150
sV\u8b4a
I4893
sV\u77cd
I2120
sV\u564c
I7325
sV\u914e
I5279
sV\u7dd1
I6789
sV\u5c50
I2513
sV\u9f52
I1058
sV\u6556
I2635
sV\u4fdd
I2029
sV\u695e
I5769
sV\u7762
I3574
sV\u53e5
I1248
sV\u9ee7
I5467
sV\u7d66
I4802
sV\u866c
I2154
sV\u62ef
I1616
sV\u9078
I744
sV\u7cfb
I5245
sV\u7aff
I2262
sV\u8305
I2260
sV\u6284
I3997
sV\u970d
I605
sV\u8596
I6463
sV\u7325
I5220
sV\u58a8
I1634
sV\u9baa
I6018
sV\u61ae
I6077
sV\u9c3b
I5261
sV\u79be
I2780
sV\u84c0
I1766
sV\u6043
I1165
sV\u744b
I3668
sV\u96cc
I2808
sV\u5fd2
I5869
sV\u9ad4
I979
sV\u60d8
I5356
sV\u8f5d
I4332
sV\u74e0
I4820
sV\u78e8
I856
sV\u676d
I4266
sV\u50f8
I6944
sV\u7f7d
I4891
sV\u5efc
I6788
sV\u6602
I1415
sV\u958b
I251
sV\u6a0a
I2081
sV\u700e
I6111
sV\u5c91
I2313
sV\u6797
I1368
sV\u8f1c
I5194
sV\u9928
I1517
sV\u672c
I1023
sV\u9ebd
I3949
sV\u5bbf
I1382
sV\u64c1
I998
sV\u8c46
I4115
sV\u76cd
I6047
sV\u574c
I6119
sV\u904e
I43
sV\u5d50
I3045
sV\u5b54
I1606
sV\u8ddb
I3692
sV\u4edd
I5717
sV\u54e1
I4224
sV\u91e3
I1266
sV\u7662
I4282
sV\u7c66
I5961
sV\u8d70
I1340
sV\u69f3
I4727
sV\u8b74
I3633
sV\u5476
I5766
sV\u9178
I2714
sV\u7dfb
I6775
sV\u527a
I6237
sV\u8401
I6871
sV\u8205
I4286
sV\u6384
I4180
sV\u7a96
I6306
sV\u778c
I6877
sV\u530f
I1450
sV\u9a15
I3585
sV\u7b94
I1191
sV\u6019
I7074
sV\u829a
I6336
sV\u6e1d
I4110
sV\u889e
I6200
sV\u59a8
I980
sV\u852b
I4745
sV\u832f
I5041
sV\u60ae
I4951
sV\u9d3b
I177
sV\u5e3d
I1268
sV\u78be
I4471
sV\u754b
I4730
sV\u50ce
I5758
sV\u7953
I4162
sV\u80ee
I5953
sV\u51f8
I7063
sV\u7e7d
I2795
sV\u5ffc
I7210
sV\u98fe
I2092
sV\u8283
I5566
sV\u6f06
I2248
sV\u968b
I2560
sV\u558d
I3709
sV\u908f
I5514
sV\u5f91
I2520
sV\u8218
I6984
sV\u689f
I3582
sV\u9024
I6173
sV\u7ca7
I3208
sV\u5f26
I587
sV\u592a
I115
sV\u642c
I4041
sV\u8fb1
I2682
sV\u6834
I3771
sV\u54b7
I5299
sV\u67c1
I3923
sV\u61c5
I3726
sV\u8f46
I4112
sV\u75cd
I5052
sV\u544c
I2292
sV\u9d52
I6986
sV\u79d5
I6521
sV\u5854
I2773
sV\u6756
I2255
sV\u8edb
I1915
sV\u615a
I629
sV\u88df
I3872
sV\u92e3
I5059
sV\u7562
I2333
sV\u9ce7
I2105
sV\u5be9
I2873
sV\u846c
I3850
sV\u8e70
I4611
sV\u6af3
I2089
sV\u74f7
I4366
sV\u5b7e
I6309
sV\u8105
I2074
sV\u6084
I3735
sV\u500f
I1312
sS'\xef'
I4514
sV\u819a
I1068
sV\u8b9e
I6850
sV\u6db2
I919
sV\u77b6
I7314
sV\u5339
I1371
sV\u5d3d
I7246
sV\u6243
I1656
sV\u80c4
I2760
sV\u5dd2
I1635
sV\u98d4
I7090
sV\u62d8
I3097
sV\u6cdc
I6867
sV\u9761
I2664
sV\u9165
I4486
sV\u5c67
I5380
sV\u656d
I7282
sV\u4ef0
I1405
sV\u6975
I375
sV\u97f6
I3212
sV\u52f8
I59
sV\u978b
I3818
sV\u548d
I4782
sV\u9b93
I6005
sV\u6597
I1092
sV\u8084
I6929
sV\u9b28
I5981
sV\u582a
I805
sV\u84ad
I4792
sV\u652c
I1090
sV\u88b5
I6032
sV\u7d3c
I5196
sV\u60c5
I445
sV\u924e
I5922
sV\u9c52
I7296
sV\u78d5
I6457
sV\u5954
I732
sV\u605a
I6539
sV\u50e5
I4210
sV\u5ae9
I873
sV\u67eb
I4744
sV\u856c
I6731
sV\u6bf3
I3024
sV\u7ffb
I1167
sV\u8005
I1556
sV\u570b
I482
sV\u940d
I7127
sV\u9e11
I4124
sV\u6219
I6383
sV\u809a
I3853
sV\u8a9e
I897
sV\u7621
I3805
sV\u57a0
I2596
sV\u51a4
I1762
sV\u872b
I6641
sV\u812f
I6618
sV\u4e31
I5166
sV\u8b33
I1897
sV\u6cb2
I5722
sV\u9f3b
I3991
sV\u7abe
I6584
sV\u87c0
I1547
sV\u6343
I7263
sV\u4ec6
I6236
sV\u95cc
I2559
sV\u7b53
I3584
sV\u5cd2
I2142
sV\u99d4
I4819
sV\u4f5b
I3446
sV\u8c5d
I7037
sV\u6ddc
I6667
sV\u9661
I6053
sV\u9065
I4653
sV\u9a69
I4614
sV\u646d
I1471
sV\u96f6
I1079
sV\u7279
I1926
sV\u53f8
I2524
sV\u6b02
I7316
sV\u6106
I4123
sV\u9e8f
I5639
sV\u6a97
I5897
sV\u609b
I6802
sV\u821c
I3187
sV\u72a7
I5973
sV\u6634
I2973
sV\u9db9
I6954
sV\u7c38
I2717
sV\u69c1
I2137
sV\u8ad7
I5373
sV\u6956
I5167
sV\u80db
I6379
sV\u86df
I1794
sV\u655e
I2530
sV\u7166
I3112
sV\u68eb
I5969
sV\u8a6c
I4906
sV\u6eef
I1442
sV\u8070
I1787
sV\u9c78
I4449
sV\u70fb
I6121
sV\u557e
I151
sV\u8f05
I5501
sV\u6488
I6627
sV\u7a8c
I6397
sV\u8996
I2282
sV\u6d19
I5843
sV\u58a0
I6090
sV\u91a6
I3719
sV\u54a8
I4652
sV\u9a37
I4119
sV\u963f
I145
sV\u75be
I2317
sV\u88c0
I6516
sV\u6247
I1199
sV\u62dc
I734
sV\u5c63
I2498
sV\u83f2
I978
sV\u6775
I3034
sV\u7d79
I3682
sV\u6a02
I374
sV\u660a
I2077
sV\u5a8d
I6477
sV\u7c0e
I6599
sV\u5091
I3388
sV\u9593
I556
sV\u831c
I4203
sV\u7da3
I5493
sV\u5026
I2210
sV\u6b2c
I5915
sV\u4faf
I60
sV\u80b1
I3182
sV\u6734
I2671
sV\u6ec5
I520
sV\u8046
I3126
sV\u64c9
I6330
sV\u5b4c
I2342
sV\u87df
I6657
sV\u9de3
I6142
sV\u7a62
I2445
sV\u8b6c
I1316
sV\u6fef
I2651
sV\u8170
I776
sV\u8774
I5048
sV\u7bf7
I4500
sV\u71fb
I7243
sV\u937c
I4570
sV\u8801
I3535
sV\u6f84
I2149
sV\u5f0f
I3128
sV\u9011
I6107
sV\u8896
I951
sV\u8e9a
I5421
sV\u849e
I5866
sV\u90a6
I1484
sV\u892b
I7227
sV\u96aa
I1117
sV\u8f2f
I5494
sV\u6cae
I1599
sV\u5c39
I2857
sV\u973f
I7233
sV\u89c0
I351
sV\u7f4f
I5254
sV\u91d0
I4938
sV\u52d2
I1195
sV\u6dd8
I4483
sV\u63dc
I5096
sV\u8cee
I3186
sV\u7c79
I5126
sV\u727d
I1351
sV\u8e83
I5799
sV\u8087
I3409
sV\u598d
I2174
sV\u6897
I4985
sV\u801c
I3825
sV\u5922
I803
sV\u9628
I4170
sV\u6230
I508
sV\u6434
I2650
sV\u52bb
I4878
sV\u91bd
I5774
sV\u703c
I5403
sV\u54bf
I3576
sV\u6dc5
I3629
sV\u8346
I1448
sV\u854a
I3245
sV\u584c
I4297
sV\u9f4e
I2004
sV\u9152
I199
sV\u75d5
I3001
sV\u4fd9
I7178
sV\u82db
I5663
sV\u6d5a
I4391
sV\u675e
I621
sV\u5be1
I1828
sV\u5de5
I1789
sV\u756a
I3654
sV\u6cef
I2349
sV\u66f3
I172
sV\u78f7
I1938
sV\u5d7a
I7196
sV\u907c
I1254
sV\u74ff
I6615
sV\u8b01
I1190
sV\u6a80
I2276
sV\u4e03
I1790
sV\u8d05
I5391
sV\u6c84
I5483
sV\u8709
I5733
sV\u6688
I3207
sV\u788c
I3086
sV\u5c0f
I242
sV\u8b96
I6499
sV\u6f19
I7149
sV\u4e98
I4339
sV\u93a6
I5608
sV\u7729
I4762
sV\u56a8
I6223
sV\u6fae
I5266
sV\u61b2
I738
sV\u9837
I4174
sV\u7dba
I903
sV\u513d
I3843
sV\u6e43
I4831
sV\u8cc4
I7057
sV\u6047
I7291
sV\u60dc
I1237
sV\u7ae0
I652
sV\u5e63
I3427
sV\u9769
I1740
sV\u696d
I1412
sV\u8fee
I6673
sV\u81f2
I6115
sV\u6575
I2038
sV\u7f79
I4290
sV\u9dfa
I1369
sV\u8187
I7215
sV\u588d
I5488
sV\u5291
I4285
sV\u8f18
I7318
sV\u639b
I1871
sV\u659f
I4780
sV\u7fa3
I1104
sV\u5226
I6527
sV\u82b1
I73
sV\u59b7
I7306
sV\u7f38
I4018
sV\u53bb
I36
sV\u90bd
I7214
sV\u66c9
I772
sV\u9052
I3291
sV\u4ed9
I322
sV\u6c5a
I4056
sV\u85df
I4037
sV\u665e
I2820
sV\u5ae1
I6714
sV\u91e7
I3277
sV\u6beb
I1499
sV\u746a
I6213
sV\u67f3
I385
sV\u5c7a
I7030
sV\u75ff
I6737
sV\u4f03
I7256
sV\u5b0b
I2359
sV\u5713
I336
sV\u6e19
I4886
sV\u4f98
I7040
sV\u601d
I804
sV\u5da4
I5094
sV\u8b2b
I2075
sV\u6eae
I5519
sV\u60b2
I417
sV\u7ab6
I5383
sV\u6147
I3599
sV\u87c8
I6476
sV\u7b4b
I607
sV\u7d4f
I6112
sV\u93d0
I6483
sV\u95d4
I2658
sV\u8e59
I1197
sV\u6fd8
I4428
sV\u7be0
I2662
sV\u5f63
I3675
sV\u7de4
I6759
sV\u5167
I134
sV\u6475
I5359
sV\u7e79
I3493
sV\u5ff8
I6894
sV\u707d
I1791
sV\u6f02
I1538
sV\u790e
I4023
sV\u5591
I2460
sV\u78a3
I3205
sV\u5f22
I5992
sV\u532a
I568
sV\u8fad
I791
sV\u6e2c
I2008
sV\u6430
I5433
sV\u6234
I1999
sV\u5eb7
I2015
sV\u99b9
I3570
sV\u54bb
I6884
sV\u763c
I3227
sV\u8f42
I1033
sV\u6bc5
I1754
sV\u61c9
I1390
sV\u5e4c
I3170
sV\u994e
I6549
sV\u9752
I235
sV\u5254
I5285
sV\u82df
I1565
sV\u5de1
I2116
sV\u98e3
I3985
sV\u5be5
I1631
sV\u7566
I4016
sV\u6ceb
I3275
sV\u736a
I7319
sV\u8e6c
I1980
sV\u60f3
I1225
sV\u5b7a
I5439
sV\u6a84
I2390
sV\u8109
I3614
sV\u5c0b
I1021
sV\u7e8c
I2666
sV\u8b9a
I3921
sV\u671d
I128
sV\u7d21
I5226
sV\u9fa2
I7136
sV\u7b25
I3272
sV\u95a6
I7131
sV\u93aa
I5808
sV\u69ae
I612
sV\u8033
I74
sV\u67b2
I5970
sV\u923f
I4263
sV\u71be
I3258
sV\u8cc0
I1901
sV\u6843
I370
sV\u4fc2
I3481
sV\u8ac4
I6963
sV\u9ecc
I6682
sV\u57d2
I3448
sV\u68d8
I1864
sV\u875d
I6147
sV\u66dc
I524
sV\u9d61
I2080
sV\u7ce0
I1111
sV\u9169
I2762
sV\u6f6d
I2224
sV\u87f2
I3089
sV\u777d
I5372
sV\u8983
I3382
sV\u6406
I3979
sV\u9d8b
I5451
sV\u620a
I5867
sV\u6f97
I1071
sV\u659b
I1559
sV\u871c
I3671
sV\u5e22
I5987
sV\u5426
I3317
sV\u522a
I5150
sV\u8ead
I4497
sV\u6f2c
I3472
sV\u84b1
I6718
sV\u5fb7
I1668
sV\u55bb
I2991
sV\u773c
I72
sV\u6cc1
I1145
sV\u8e42
I5941
sV\u8446
I4912
sV\u5f4c
I2198
sV\u5550
I3842
sV\u5354
I3414
sV\u83df
I3603
sV\u605e
I7004
sV\u7e62
I4932
sV\u6deb
I373
sV\u6bef
I4395
sV\u5a7a
I3301
sV\u8c01
I6721
sV\u6b84
I3465
sV\u7f8c
I2254
sV\u9215
I7160
sV\u8a9a
I2296
sS'\x9e'
I4535
sV\u7c21
I1540
sV\u5da0
I2295
sV\u5ba4
I739
sV\u7029
I5350
sV\u4e2d
I202
sV\u9f37
I6710
sV\u7aba
I1848
sV\u563d
I7251
sV\u6747
I7113
sV\u7b4f
I2376
sV\u95d0
I3492
sV\u4f57
I5122
sV\u8859
I4202
sV\u7de0
I3276
sV\u9a65
I1817
sV\u7be4
I4189
sV\u9069
I1564
sV\u9cf6
I1114
sV\u767d
I15
sV\u4f81
I3473
sV\u9e8b
I1590
sV\u9293
I3803
sV\u5195
I1402
sV\u8a18
I2828
sV\u609f
I2792
sV\u7aa3
I5298
sV\u5d22
I2957
sV\u9824
I1439
sV\u74a7
I1760
sV\u4eab
I3085
sV\u512a
I993
sV\u5cb7
I1608
sV\u56bb
I3343
sV\u95bd
I4850
sV\u6fc1
I1181
sV\u63c9
I6341
sV\u814a
I7341
sV\u7dcd
I7059
sV\u9b4e
I5302
sV\u71d5
I149
sV\u86db
I5416
sV\u695a
I1424
sV\u5fe1
I766
sV\u9ae3
I1920
sV\u7d62
I5326
sV\u59e5
I2477
sV\u7766
I5495
sV\u53e9
I3615
sV\u8c6c
I3737
sV\u62f3
I2622
sV\u76fb
I5104
sV\u8309
I5127
sV\u9711
I2385
sV\u7690
I7144
sV\u5213
I4942
sV\u6b19
I7324
sV\u651d
I2859
sV\u839e
I6861
sV\u5ea0
I4105
sV\u9da2
I5450
sV\u97a6
I3820
sV\u7329
I1393
sV\u91aa
I3090
sV\u8233
I4039
sV\u65b2
I6292
sV\u7fb6
I3563
sV\u963b
I1072
sV\u79ba
I5517
sV\u553d
I6933
sV\u8ec0
I636
sV\u6447
I4746
sV\u784f
I6664
sV\u7253
I2764
sV\u8b59
I3197
sV\u9f61
I1750
sV\u72e8
I5361
sV\u6771
I161
sV\u80a9
I2182
sV\u6175
I3746
sV\u4e81
I5662
sV\u6c02
I6127
sV\u8587
I2502
sV\u6606
I2047
sV\u600a
I6277
sV\u4e16
I106
sV\u9f20
I2692
sV\u9328
I7103
sV\u502a
I578
sS'\xb5'
I4543
sV\u6134
I356
sV\u5db7
I3480
sV\u6ec1
I6783
sV\u804a
I1522
sV\u5d4c
I2952
sV\u9a4e
I4965
sV\u5750
I299
sV\u9452
I2521
sV\u5154
I327
sV\u8dd7
I4875
sV\u6e56
I1280
sV\u87db
I4433
sV\ue85a
I6563
sV\u81df
I4346
sV\u625e
I6438
sV\u5ee1
I4147
sV\u7c62
I6900
sV\u58e5
I4216
sV\u52e9
I6045
sV\u6feb
I3787
sV\u8d6c
I498
sV\u8174
I4791
sV\u5e76
I6494
sV\u77fb
I4479
sV\u71ff
I4091
sV\u6f80
I3895
sV\u8805
I1761
sV\u8209
I1279
sV\u6388
I1950
sV\u5f0b
I2121
sV\u7d8c
I699
sV\u590f
I2388
sV\u9015
I3255
sV\u6a19
I2042
sV\u5fa0
I2558
sV\u7825
I3149
sV\u59a4
I2903
sV\u53a8
I4991
sV\u90aa
I2485
sV\u6aae
I5235
sV\u64b2
I1663
sV\u78ba
I3008
sV\u6b43
I5387
sV\u794f
I5267
sV\u6bd8
I3924
sV\u7fe0
I877
sV\u5b63
I1601
sV\u9865
I6167
sV\u79e4
I3834
sV\u6c6d
I2976
sV\u8aee
I6035
sV\u7a79
I567
sV\u5bf8
I1702
sV\u747d
I7062
sS'\x8b'
I4505
sV\u868f
I4434
sV\u8c93
I6648
sV\u6b12
I5616
sV\u9418
I610
sV\u8624
I7258
sV\u722c
I5173
sV\u99b1
I5784
sV\u5cb3
I2431
sV\u71c1
I7099
sV\u5c48
I1456
sV\u9f4a
I421
sV\u854e
I5638
sV\u6fd5
I2601
sV\u7156
I3031
sV\u98db
I292
sV\u775a
I4795
sV\u8ae7
I2299
sV\u9870
I3000
sV\u8a7c
I7033
sV\u6eff
I614
sV\u5403
I5706
sV\u9705
I4253
sV\u7684
I1912
sV\u9d09
I2693
sV\u6890
I6233
sV\u8f15
I71
sV\u6e94
I5497
sV\u9196
I4707
sV\u979a
I3032
sV\u83a2
I3050
sV\u89a6
I6528
sV\u6d29
I4553
sV\u962f
I4918
sV\u5931
I1209
sV\u5f35
I1383
sV\u8237
I5005
sV\u61b6
I418
sV\u883b
I3185
sV\u96c4
I184
sV\u59c6
I4862
sV\u664f
I1808
sV\u8ed4
I5336
sV\u5257
I2750
sV\u74d8
I5793
sV\u5e5f
I5661
sV\u60e0
I1431
sV\u8765
I4910
sV\u8d69
I594
sV\u6ce8
I1954
sV\u7f75
I7213
sV\u9583
I4590
sV\u7806
I5626
sV\u7e0a
I6898
sV\u4e95
I584
sV\u5016
I4211
sV\u4e2a
I6398
sV\u9eb5
I6004
sV\u84b9
I4489
sV\u6538
I3441
sV\u4fbf
I2218
sV\u5140
I1968
sV\u9846
I3407
sV\u7cc9
I3341
sV\u62cd
I2686
sV\u8a52
I6841
sV\u6ed5
I4978
sV\u93d7
I3084
sV\u99db
I3299
sV\u7c5e
I3460
sV\u936c
I6842
sV\u77ef
I1446
sV\u9001
I1501
sV\u7d88
I2555
sV\u820d
I1381
sV\u638c
I2542
sV\u5598
I1178
sV\u5b9c
I892
sV\u6021
I2869
sV\u6625
I372
sV\u8eaa
I6558
sV\u5831
I305
sV\u60b6
I2294
sV\u893b
I5448
sV\u8f3f
I376
sV\u6cbe
I619
sV\u91c0
I3013
sV\u7b47
I2591
sV\u614b
I3298
sV\u5eca
I2328
sV\u83cc
I3946
sV\u674f
I2623
sV\u8fd4
I1060
sV\u5357
I576
sV\u8665
I5937
sV\u6de8
I826
sV\u53ec
I823
sV\u6479
I6387
sV\u86fa
I3722
sV\u8cfe
I4172
sV\u9683
I7061
sV\u5f89
I6574
sV\u828b
I5071
sV\u7d0a
I5844
sV\u8e93
I5204
sV\u6912
I3903
sV\u5316
I603
sV\u7c9f
I1118
sV\u8220
I2505
sV\u68a7
I702
sV\u8e28
I4751
sV\u52ab
I1086
sV\u91ad
I6691
sV\u5eb3
I4473
sV\u9db5
I6523
sV\u7c34
I5649
sV\u89bd
I1666
sV\u683c
I1925
sV\u75c5
I2136
sV\u5e48
I6185
sV\u9d4a
I3714
sV\u61cd
I7320
sV\u874e
I4591
sV\u90d7
I5516
sV\u755a
I2434
sV\u59dd
I2728
sV\u6162
I2233
sV\u6b66
I1016
sV\u6d6a
I1265
sV\u906c
I7352
sV\u60f7
I6286
sV\u6afb
I3827
sV\u4f7e
I3520
sV\u7280
I2030
sV\u5807
I5400
sV\u9f09
I4759
sV\u7e88
I3289
sV\u608c
I6374
sV\u6a90
I2937
sV\u6c94
I2373
sV\u9396
I879
sV\u5698
I6950
sV\u589c
I2960
sV\u6f29
I6155
sV\u4ea8
I3326
sV\u8a3b
I6325
sV\u8c3f
I1506
sV\u6fbe
I6970
sV\u5bc6
I1210
sV\u9ec8
I5861
sV\u624b
I695
sV\u80cc
I1686
sV\u644f
I5671
sV\u6e53
I4093
sV\u9759
I4668
sV\u50ec
I4228
sV\u97ee
I4713
sV\u5cf4
I853
sV\u83f6
I5990
sV\u85fa
I1638
sV\u858f
I5124
sV\u660e
I10
sV\u5216
I5032
sV\u7d9f
I6246
sV\u53ab
I6781
sV\u72c1
I5660
sV\u5340
I1819
sV\u9042
I1532
sV\u74c5
I7355
sV\u5544
I2420
sV\u9a46
I4561
sV\u5f48
I1228
sV\u25cf
I6538
sV\u864e
I467
sV\u6ad1
I5169
sV\u8852
I3720
sV\u6cd5
I1277
sV\u91d7
I6828
sV\u7256
I1441
sV\u745a
I2946
sV\u58dd
I3269
sV\u9ddf
I4125
sV\u7e5e
I232
sV\u87e3
I4477
sV\u6062
I3397
sV\u6a66
I6378
sV\u6c6a
I2876
sV\u916c
I1814
sV\u7ff3
I563
sV\u5872
I4085
sV\u61f7
I1296
sV\u8778
I4481
sV\u4e7e
I3364
sV\u5703
I1737
sV\u7f88
I1571
sV\u6d94
I5090
sV\u9296
I4446
sV\u9e9e
I3327
sV\u6221
I2612
sV\u80a2
I3957
sV\u6425
I2878
sV\u8aa6
I1596
sV\u932b
I2458
sV\u8caa
I3447
sV\u502d
I6623
sV\u76ae
I468
sV\u62b6
I1664
sV\u50c2
I5408
sV\u7947
I2655
sV\u634b
I4249
sV\u654f
I4732
sV\u6f53
I7193
sV\u5157
I5527
sV\u5b5b
I5538
sV\u63e0
I6601
sV\u5bf0
I3353
sV\u98f2
I46
sV\u5df4
I303
sV\u82f6
I7287
sV\u8efe
I3234
sV\u5581
I5729
sV\u9083
I3241
sV\u7d06
I3581
sV\u610e
I6170
sV\u9e1c
I6985
sV\u7a9f
I1131
sV\u25a1
I3311
sV\u8420
I4631
sV\u60a3
I3138
sV\u6ea7
I1965
sV\u8828
I6156
sV\u54ab
I1530
sV\u97ad
I138
sV\u9db1
I3572
sV\u58b3
I1799
sV\u5440
I4360
sV\u9742
I5109
sV\u79c9
I1854
sV\u814e
I4587
sV\u6dd1
I2883
sV\u8f52
I6823
sV\u5fdd
I1932
sV\u795e
I1323
sS'\xe3'
I4526
sV\u6d66
I925
sV\u966c
I3832
sV\u516e
I3710
sV\u78f3
I7073
sV\u66f7
I3412
sV\u7480
I2913
sV\u7284
I6545
sV\u9909
I5233
sV\u870d
I334
sV\u668c
I3162
sV\u6c90
I940
sV\u7119
I4482
sV\u5098
I6222
sV\u939a
I3835
sV\u5e9c
I1868
sV\u87a2
I807
sV\u8da6
I4797
sV\u942b
I4342
sV\u572d
I3199
sV\u5d31
I6297
sV\u9833
I4275
sV\u7fb2
I1319
sV\u4f3d
I3887
sV\u69be
I5357
sV\u7043
I6404
sV\u57c2
I6180
sV\u7e47
I4111
sV\u98c8
I4618
sV\u6853
I2067
sV\u70d8
I5791
sV\u8561
I6848
sV\u64e0
I7313
sV\u68e8
I6547
sV\u7d71
I2626
sV\u5cf0
I1387
sV\u7b75
I2043
sV\u85f6
I4601
sV\u5889
I4096
sV\u7a0a
I6101
sV\u8993
I3700
sV\u7d9b
I6138
sV\u581e
I3659
sV\u6fa7
I5115
sV\u55ab
I3697
sV\u7d30
I384
sV\u59b3
I4602
sV\u7b34
I2745
sS'\xb9'
I4525
sV\u6f3c
I5724
sV\u5540
I3708
sV\u9642
I2257
sV\u5948
I1777
sV\u9a4a
I2645
sV\u5edd
I6740
sV\u81e3
I1933
sV\u9d70
I4758
sV\u5e72
I240
sV\u9b74
I5146
sV\u8178
I765
sV\u6dfb
I2348
sV\u6bff
I3828
sV\u7384
I116
sV\u5f07
I4720
sV\u678c
I5222
sV\u8a15
I6596
sV\u7e1d
I3724
sV\u5f9c
I6573
sV\ue829
I5510
sV\u8aaa
I1503
sV\u932f
I1835
sV\u70ae
I2721
sV\u5c31
I2068
sV\u9933
I4376
sV\u56c2
I2667
sV\u7f47
I3113
sV\u99c8
I4572
sV\u6953
I2394
sV\u9059
I1192
sV\u5b5f
I190
sV\u8461
I6863
sV\u65e0
I7168
sV\u8869
I6489
sV\u69e8
I3653
sV\u766d
I5178
sV\u88fe
I938
sV\u5b89
I220
sV\u868b
I5385
sV\u4f91
I4270
sV\u8a93
I1733
sV\u6d12
I2887
sV\u5716
I1582
sV\u7e9b
I4394
sV\u95ad
I3151
sV\u742c
I6349
sV\u50af
I3874
sV\u7834
I784
sV\u5640
I5465
sV\u7bc9
I2412
sV\u65cd
I6065
sV\u9edb
I2954
sV\u5ddd
I390
sV\u98df
I1110
sV\u82e3
I5428
sV\u6562
I973
sV\u6f66
I4405
sV\u696a
I3982
sV\u536e
I3507
sV\u5d72
I3857
sV\u9874
I6288
sV\u64f7
I4060
sV\u8278
I4569
sV\u6efb
I4083
sV\u5203
I511
sV\u5c07
I52
sV\u9b09
I154
sV\u7a88
I2086
sV\u850d
I7245
sV\u6e90
I2102
sV\u8915
I2743
sV\u6894
I5636
sV\u5298
I5460
sV\u7d1d
I3732
sV\u9b9e
I5803
sV\u8fa6
I3990
sV\u89aa
I531
sV\u5f31
I1749
sV\u7db2
I2111
sV\u67b6
I3118
sV\u61ba
I7250
sV\u96c0
I1099
sV\u90c4
I4458
sV\u59ca
I970
sV\u88d4
I2366
sV\u5e5b
I6344
sV\u9d5d
I1715
sV\u7cdc
I4491
sV\u66e0
I1212
sV\u8165
I3564
sV\u6ae8
I5617
sV\u9df2
I3458
sV\u81fa
I269
sV\u5085
I1756
sV\u7e06
I4897
sV\u818f
I2469
sV\u620e
I1030
sV\u4e91
I1258
sV\u8b93
I680
sV\u5616
I6419
sV\u9318
I5473
sV\u501a
I1015
sV\u63a3
I1958
sV\u8124
I6437
sV\u4e26
I1673
sV\u8b28
I3260
sV\u752c
I5654
sV\u5bb3
I1894
sV\u7934
I6354
sV\u82b9
I1477
sV\u8cbd
I2130
sV\u6d3c
I5081
sV\u5740
I4743
sV\u5144
I1417
sV\u64cd
I1429
sV\u824e
I5051
sV\u6ed1
I2519
sV\u4f50
I984
sV\u7656
I4757
sV\u52d9
I1322
sV\u99df
I3399
sV\u8de7
I5940
sV\u7bf3
I6811
sV\u69ff
I2961
sV\u9005
I4658
sV\u5d07
I1024
sV\u840d
I1677
sV\u658c
I7265
sV\u8815
I5798
sV\u6994
I1561
sV\u6025
I1029
sV\u88aa
I3908
sV\u542d
I5848
sV\u912f
I6660
sV\u7cb2
I649
sV\u5835
I3893
sV\u8f3b
I6938
sV\u60ba
I5807
sV\u7343
I3932
sV\u54c2
I2037
sV\u7d47
I6235
sV\u9bc8
I6485
sV\u89d4
I7242
sV\u5557
I6393
sV\u7ddc
I1731
sV\u8a69
I1364
sV\u9cf2
I5767
sV\u6279
I5508
sV\u8afe
I66
sV\u5f85
I1207
sV\u5589
I4351
sV\u888b
I3995
sV\u770a
I6976
sV\u6d0e
I3766
sV\u7a97
I808
sV\u5916
I1134
sV\u9bad
I5740
sV\u91b1
I6776
sV\u7030
I5253
sV\u54b3
I438
sV\u97b5
I5989
sV\u7634
I3830
sV\u6c38
I1988
sV\u83bd
I2009
sV\u79c1
I3119
sV\u9b42
I864
sV\u7fc5
I3283
sV\u5e44
I1729
sV\u9146
I1798
sV\u5448
I1945
sV\u6bcd
I1255
sV\u8352
I740
sV\u7956
I1362
sV\u90db
I6136
sV\u96df
I5026
sV\u8ce3
I1584
sV\u6b62
I2862
sV\u82e7
I2837
sV\u676a
I3483
sV\u9070
I2582
sV\u9674
I5567
sV\u8c78
I4068
sV\u60fb
I570
sV\u4f7a
I6422
sV\u66ff
I2708
sV\u9901
I5974
sV\u5207
I710
sV\u7488
I4622
sV\u9996
I114
sV\u7d19
I2995
sV\u4ea4
I187
sV\u81a6
I7188
sV\u982b
I6920
sV\u7dae
I6748
sV\u5131
I6629
sV\u73b2
I846
sV\u803b
I1115
sV\u863f
I991
sV\u65be
I2096
sV\u98c0
I5521
sV\u7c43
I3906
sV\u5bc2
I837
sV\u7247
I1008
sV\u51c6
I6983
sV\u5a57
I6187
sV\u68e0
I810
sV\u8f65
I6797
sV\u8569
I1044
sV\u7b6d
I3511
sV\u50f0
I5234
sV\u89f6
I5613
sV\u6d79
I3417
sV\u8ffa
I6787
sV\u637d
I5944
sV\u5881
I5615
sV\u7a02
I6118
sV\u7006
I5036
sV\u898b
I430
sV\u6c0e
I5304
sV\u6212
I2545
sV\u7b97
I2971
sV\u719b
I6338
sV\u5e1a
I5306
sV\u541e
I1611
sV\u8f24
I7054
sV\u63a7
I924
sV\u9aad
I7295
sV\u7b2c
I886
sV\u5faf
I6843
sV\u90b1
I4830
sV\u7130
I3054
sV\u7734
I7035
sV\u6d38
I5720
sV\u82bd
I3310
sV\u633c
I7009
sV\u9a42
I1081
sV\u964a
I7003
sV\u8c4e
I2813
sV\u60d1
I350
sV\u5cd9
I3619
sV\u7e5a
I693
sV\u52dd
I1505
sV\u745e
I3193
sV\u8de3
I4699
sV\u4ee5
I459
sV\u79eb
I4916
sV\u5272
I492
sV\u9774
I5317
sV\u837c
I4348
sV\u67ff
I5001
sV\u4f0f
I962
sV\u6190
I911
sV\u9e9a
I6402
sV\u721d
I5875
sV\u6821
I3512
sV\u6e25
I1935
sV\u992b
I5759
sV\u86aa
I6768
sV\u9f2f
I2884
sV\u7cae
I6624
sV\u5635
I5141
sV\u8b37
I7358
sV\u6eba
I1600
sV\u873f
I5330
sV\u64be
I6743
sV\u7d43
I1889
sV\u5ac2
I2237
sV\u95c8
I3297
sV\u56ca
I2367
sV\u6f4f
I4917
sV\u5b57
I1365
sV\u7dd8
I2659
sV\u8861
I2308
sV\u6fe4
I1124
sV\u8469
I1460
sV\u65e8
I3061
sV\u7a6d
I2999
sV\u5bec
I966
sV\u51f0
I989
sV\u57f4
I6479
sV\u6c79
I5129
sV\u8efa
I4025
sV\u9087
I3425
sV\u8693
I5764
sV\u5b16
I6866
sV\u9e18
I759
sV\u5d1a
I6408
sV\u749f
I6307
sV\u571e
I5836
sV\u99ad
I2941
sV\u7230
I3963
sV\u7434
I1453
sV\u6e38
I994
sV\u81bd
I1843
sV\u7bc1
I3018
sV\u5a40
I4995
sV\u77c9
I2901
sV\u69cd
I3547
sV\u63d1
I5690
sV\u8152
I6611
sV\u98d7
I7071
sV\u7b56
I829
sV\u5fd9
I3231
sV\u7d5a
I5826
sV\u51dd
I1919
sV\u775e
I6590
sV\u6962
I5457
sS'\xe7'
I4512
sV\u7cef
I4994
sV\u64ff
I5511
sV\u7a80
I4426
sV\u5e03
I1066
sV\u8515
I5422
sV\u9d9a
I2193
sV\u509c
I6471
sV\u979e
I3122
sV\u6b21
I2358
sV\u6d25
I673
sV\u83a6
I3811
sV\u9a2b
I1771
sV\u85aa
I1073
sV\u592d
I2962
sV\u7fae
I7247
sV\u5331
I1998
sV\u71b2
I6935
sV\u9ac0
I6176
sV\u7e43
I7120
sV\u7047
I6603
sV\u6a4b
I790
sV\u55ca
I3782
sV\u88cc
I6873
sV\u4fce
I3373
sV\u5857
I1531
sV\u525b
I3839
sV\u70dc
I95
sV\u4e63
I6819
sV\u66e8
I3611
sV\u796d
I5155
sV\u58ec
I6339
sV\u7371
I6448
sV\u617d
I5102
sV\u87fe
I333
sV\u7802
I801
sV\u9187
I3390
sV\u7206
I5034
sV\u740a
I1679
sV\u8793
I5664
sV\u6012
I3148
sV\u5c1a
I975
sV\u911c
I3529
sV\u8b20
I1667
sV\u6fa3
I4069
sV\u61a7
I4094
sV\u8728
I6909
sV\u98ad
I4289
sV\u792c
I7111
sV\u6f38
I2444
sS'\xbd'
I4546
sV\u7ac1
I5925
sV\u5b40
I4344
sV\u7cc5
I7261
sV\u944a
I3983
sV\u8052
I1121
sV\u64d5
I6368
sV\u81e7
I4055
sV\u7def
I1467
sV\u5e6e
I5709
sV\u77f3
I626
sV\u9a01
I1821
sV\u6390
I5748
sV\u5f98
I3065
sV\u701d
I3630
sV\u6a21
I3313
sV\u84aa
I5010
sV\u9d2f
I6908
sV\u5231
I3638
sV\u4e39
I211
sV\u66be
I2779
sV\u9bc0
I6075
sV\u9dc4
I4832
sV\u97c8
I2782
sV\u6753
I4248
sV\u905d
I7123
sV\u555f
I4650
sV\u8a61
I6839
sV\u6de4
I3952
sV\u8669
I5679
sV\u59ec
I2156
sV\u9eee
I7002
sV\u53f0
I1880
sV\u8af6
I6023
sV\u4ff8
I4193
sV\u8cfa
I6207
sV\u86fe
I422
sV\u5d81
I7013
sV\u5b85
I1572
sV\u5189
I4288
sV\u730a
I6048
sV\u4f8d
I745
sV\u690e
I2840
sV\u8093
I5464
sV\u5d16
I580
sV\u9818
I2266
sV\u961c
I2877
sV\u8028
I3747
sV\u5cab
I2350
sV\u95b1
I2798
sV\u7430
I3010
sV\u50b3
I1286
sV\u6838
I4242
sV\u87bd
I2455
sV\u5c40
I3452
sV\u5048
I2784
sV\u934a
I1464
sV\u715e
I6537
sV\u6f62
I3235
sV\u6566
I2199
sV\u7aef
I321
sV\u596e
I1245
sV\u9470
I5162
sV\u64fb
I4213
sV\u9b05
I6750
sV\u7a84
I2585
sV\u9109
I530
sV\u8511
I4923
sV\u6490
I2832
sV\u6294
I6931
sV\u9d96
I5461
sV\u7919
I2875
sV\u919e
I4017
sV\u85a6
I748
sV\u5f2d
I2221
sV\u79ae
I2479
sV\u5531
I1184
sV\u8e37
I4655
sV\u6bba
I24
sV\u61be
I5091
sV\u7843
I7001
sV\u53ca
I369
sV\u8ecc
I3188
sV\u84d0
I5436
sV\u6053
I4476
sV\u82d4
I284
sV\u5e57
I2131
sV\u76dc
I1985
sV\u6ce0
I2766
sV\u5eec
I1488
sV\u99ee
I4122
sV\u97f2
I6098
sV\u7375
I479
sV\u6979
I1483
sV\u81fe
I1208
sV\u7406
I1891
sV\u7f97
I2824
sV\u5c16
I4677
sV\u9918
I424
sV\u971c
I8
sV\u5dab
I5485
sV\u7530
I1217
sV\u7334
I2206
sV\u7ac5
I3743
sV\u5148
I88
sV\u6ecd
I5558
sV\u884e
I7280
sV\u62d5
I7321
sV\u58d9
I5800
sV\u93df
I5370
sV\u705e
I3251
sV\u89e3
I794
sV\u7deb
I7109
sV\u9f6c
I3796
sV\u5672
I7157
sV\u65fb
I5033
sV\u9a05
I4417
sV\u6f8c
I4049
sV\u8411
I6700
sV\u6590
I4925
sV\u6029
I6895
sV\u5e2d
I914
sV\u9b2f
I6836
sV\u8f37
I7317
sV\u853b
I4929
sV\u9dc0
I5962
sV\u5ec2
I3076
sV\u7747
I5087
sV\u85d0
I6285
sV\u5f57
I2912
sV\u9859
I5329
sV\u79d8
I4019
sV\u965d
I3350
sV\u77dc
I1696
sV\u8c61
I2031
sV\u7e6d
I4296
sV\u7471
I4907
sV\u96f2
I320
sV\u6879
I5963
sV\u5f81
I832
sV\u7d02
I6117
sV\u8e8b
I2731
sV\u7c97
I3479
sV\u9a18
I7170
sV\u769b
I6211
sV\u591a
I557
sV\u8e20
I4605
sV\u6aa3
I4435
sV\u5eab
I2767
sV\u91b5
I3130
sV\u7034
I6212
sV\u6a38
I5282
sV\u7fc1
I1022
sV\u9d42
I6953
sV\u9746
I3876
sV\u73c9
I1470
sV\u914a
I2763
sV\u8b4e
I5665
sV\u67d1
I4705
sV\u96db
I2288
sV\u795a
I3316
sV\u4fe1
I44
sV\u84e7
I5676
sV\u78ef
I2826
sV\u9670
I347
sV\u4f76
I6565
sV\u847c
I7225
sV\u5a03
I2085
sV\u9905
I5423
sV\u4e0b
I113
sV\u8d0d
I5592
sV\u6c8c
I3740
sV\u6690
I6864
sV\u6094
I3846
sV\u7b19
I2503
sV\u8da2
I5818
sV\u75b2
I516
sV\u5135
I6290
sV\u8c37
I724
sV\u6fb6
I4088
sV\u803f
I2324
sV\u63be
I5067
sV\u5dc2
I4794
sV\u98c4
I540
sV\u7447
I6699
sV\u51ca
I7115
sV\u6253
I3623
sV\u80d4
I7089
sV\u74dc
I1451
sV\u8f61
I3233
sV\u56f0
I3676
sV\u89fa
I7266
sV\u5885
I4046
sV\u5289
I2020
sV\u898f
I2597
sV\u8393
I2881
sV\u6412
I3674
sV\u5e16
I4466
sV\u9b18
I2497
sV\u719f
I1870
sV\u8f20
I6206
sV\u6ba3
I7023
sV\u65a7
I2191
sV\u8328
I2261
sV\u7d2c
I7357
sV\u96b1
I741
sV\u90b5
I3976
sV\u8ab9
I3964
sV\u6b38
I5901
sV\u5f40
I5631
sV\u78c5
I6353
sV\u5944
I3047
sV\u5348
I2648
sV\u904a
I478
sV\u8a4e
I2399
sV\u60d5
I2411
sV\u9dd7
I1989
sV\u7e56
I6762
sV\u97db
I6011
sV\u4ee1
I6123
sV\u6666
I2625
sV\u7feb
I2279
sV\u606a
I6446
sV\u9d6c
I1879
sV\u9174
I5015
sV\u6df7
I2806
sV\u8b78
I5604
sV\u61ff
I2200
sV\u5b03
I5593
sV\u9805
I2196
sV\u5507
I4560
sV\u4f0b
I5100
sV\u6d8c
I4387
sV\u6790
I1491
sV\u8015
I1135
sV\u6194
I3005
sV\u7a19
I6226
sV\u5b98
I1575
sV\u559c
I1684
sV\u6e21
I835
sV\u8ca2
I4953
sV\u80aa
I6259
sV\u7aae
I401
sV\u6eb6
I4640
sV\u873b
I4134
sV\u50ca
I2643
sV\u8dcc
I5202
sV\u7bd8
I6675
sV\u515f
I6719
sV\u8e61
I4552
sV\u6fe0
I1780
sV\u9aee
I224
sV\u647d
I5580
sV\u6483
I6914
sV\u8302
I1876
sV\u6a87
I6812
sV\u8f0a
I5312
sV\u9b12
I3731
sV\u5e14
I3634
sV\u6418
I3813
sV\u7020
I6461
sV\u7624
I5984
sV\u7c28
I7175
sV\u822c
I3650
sV\u69b1
I5750
sV\u8e34
I4139
sV\u75b9
I4804
sV\u9438
I3083
sV\u754e
I4372
sV\u99d1
I2576
sV\u7b52
I4398
sV\u62d7
I3804
sV\u74e3
I4839
sV\u5664
I4781
sV\u5c68
I4053
sV\u9f6a
I2797
sV\u9eff
I5369
sV\u6101
I300
sS'\x80'
I4527
sV\u6705
I2364
sV\u679a
I1983
sV\u8b1d
I1018
sV\u73a2
I6275
sV\u79a6
I3398
sV\u602b
I3870
sV\u662f
I408
sV\u6c33
I2609
sV\u54b8
I581
sV\u5abc
I5644
sV\u7e3f
I6192
sV\u66c4
I3847
sV\u904b
I565
sV\u5951
I1837
sV\u78d0
I1187
sV\u6559
I898
sV\u8adc
I5352
sV\u53e2
I1861
sV\u7765
I3718
sV\u59e6
I3980
sV\u5fea
I5797
sV\u5277
I7273
sV\u5e7f
I6964
sV\u6583
I6000
sV\u8202
I1410
sV\u8806
I4848
sV\u8e0a
I2570
sV\u5910
I6930
sV\u7d93
I117
sV\u5f14
I1978
sV\u6518
I4760
sV\u8f9f
I965
sV\u95a3
I362
sV\u56a5
I2771
sV\u5ca9
I4026
sV\u8930
I2408
sV\u8f34
I7230
sV\u9b3c
I560
sV\u5c3e
I1075
sV\u51cb
I1025
sV\u6e4a
I5699
sV\u57cf
I3215
sV\u5dd3
I7337
sV\u9ed5
I5576
sV\u8056
I1404
sV\u6fdf
I944
sV\u9262
I4029
sV\u5764
I3416
sV\u9866
I2203
sV\u8df3
I4064
sV\u4ef5
I4731
sV\u720d
I2472
sV\u938c
I6468
sV\u548e
I3992
sV\u7811
I4806
sV\u5a92
I1929
sV\u9f94
I2487
sV\u6096
I5546
sV\u8a1d
I3389
sV\u9021
I4273
sV\u72a2
I2942
sV\u9c29
I7126
sV\u672f
I6067
sV\u6d33
I4315
sV\u8ab2
I3340
sV\u7337
I2613
sV\u8543
I3200
sV\u67c4
I2741
sV\u914b
I4889
sV\u524d
I50
sV\u9d53
I6659
sV\u5e55
I1037
sV\u7fd4
I1803
sV\u52e2
I1166
sV\u7665
I6503
sV\u97e4
I5321
sV\u7c69
I4734
sV\u8871
I6082
sV\u5377
I751
sV\u5f7f
I1805
sV\u7cfe
I1398
sV\u8102
I3880
sV\u4e08
I407
sV\u8d0a
I3488
sV\u970e
I5711
sV\u7e93
I4
sV\u9912
I4357
sS'\x97'
I4536
sS'<START>'
p2
I7368
sV\u96a3
I561
sV\u7424
I5710
sV\u5fa9
I862
sV\u6db5
I2339
sV\u77b9
I7192
sV\u79bd
I1708
sV\u83c1
I5060
sV\u6b46
I3505
sV\u91cd
I933
sV\u5ed3
I548
sV\u9dd5
I5707
sV\u8356
I7224
sV\u6adb
I3155
sV\u855a
I3387
sV\u76e3
I4409
sV\u9162
I7198
sV\u78e7
I3548
sV\u5e68
I6693
sV\u82eb
I5988
sV\u606c
I3147
sV\u6a70
I6219
sV\u6c74
I4386
sV\u57f9
I4984
sV\u7678
I5540
sV\u9afb
I867
sV\u787c
I6456
sV\u9cff
I7207
sV\u6301
I57
sV\u6505
I6490
sV\u6f09
I1946
sV\u7b11
I196
sV\u5992
I3606
sV\u7d15
I6231
sV\u6396
I3519
sV\u659a
I6375
sV\u9321
I6813
sV\u809d
I358
sV\u87ae
I4974
sV\u89b2
I3418
sV\u7a3b
I3596
sV\u7c3f
I3986
sV\u4f49
I6570
sV\u514d
I667
sV\u5b51
I5055
sV\u5d55
I6932
sV\u695d
I7058
sV\u88dc
I2483
sV\u4fde
I5252
sV\u7565
I543
sV\u5be6
I1801
sV\u7f69
I3274
sV\u9ee8
I555
sV\u67ee
I6510
sV\u4e73
I1109
sV\u69f2
I5014
sV\u5077
I4238
sV\u75fa
I5057
sV\u7ffe
I4903
sV\u738b
I542
sV\u758f
I2911
sV\u9812
I3537
sV\u5d14
I1613
sV\u54a5
I6427
sV\u7524
I1944
sV\u5236
I1158
sV\u9738
I1602
sV\u543a
I6958
sV\u993c
I7333
sV\u6042
I4418
sV\u53cb
I1694
sV\u6c4a
I6602
sV\u9ad1
I3844
sV\u8256
I5949
sV\u6bdb
I708
sV\u845a
I3833
sV\u5360
I3142
sV\u77e3
I2448
sV\u79e7
I4436
sV\u9a66
I6416
sV\u83eb
I4302
sV\u6d74
I941
sV\u56f9
I3636
sV\u58fd
I2158
sV\u8584
I1345
sV\u700d
I5212
sV\u7a11
I6592
sV\u9b90
I5815
sV\u6296
I5714
sV\u8619
I7173
sV\u649a
I6491
sV\u5927
I97
sV\u632b
I5478
sV\u652f
I495
sV\u6f33
I1651
sV\u7b3b
I6512
sV\u7d3f
I5907
sV\u9ebe
I2572
sV\u63c0
I2215
sV\u65c4
I504
sV\u934b
I6513
sV\u5c55
I260
sV\u89dc
I3404
sV\u4ede
I1674
sV\u7261
I4190
sV\u95e4
I1332
sV\u5ae6
I900
sV\u7e69
I1271
sV\u8a71
I1581
sV\u4f73
I860
sV\u68f2
I1148
sV\u5177
I1832
sV\u72f6
I6400
sV\u8702
I509
sV\u748b
I4127
sV\u7893
I3945
sV\u4f9d
I1002
sV\u90a3
I146
sV\u53a5
I2143
sV\u9ea7
I7194
sV\u6bb5
I2698
sV\u8a34
I1162
sV\u9038
I1665
sV\u7fbd
I792
sV\u593e
I1056
sV\u85c1
I4596
sV\u83c5
I6350
sV\u4ec7
I5316
sV\u6b4a
I2300
sV\u97cd
I6478
sV\u714e
I1859
sV\u58d3
I3210
sV\u8556
I2663
sV\u6cdb
I2514
sV\u6adf
I4697
sV\u895e
I6027
sV\u9762
I1395
sV\u666c
I3438
sV\u6c70
I2283
sV\u88f3
I972
sV\u96f7
I1649
sV\u51f9
I4444
sV\u7078
I5438
sV\u5ffd
I410
sV\u7e7c
I2418
sV\u9aff
I7301
sV\u8888
I3871
sV\u5f92
I757
sV\u6596
I6949
sV\u8f1d
I917
sV\u699e
I5430
sV\u5023
I7248
sV\u77a2
I3837
sV\u7da6
I6389
sV\u8fb2
I1898
sV\u95b6
I2657
sV\u7a3f
I7220
sV\u8043
I6294
sV\u62c4
I4424
sV\u8e47
I1527
sV\u76cc
I4250
sV\u924f
I4077
sV\u9853
I5419
sV\u5b55
I5083
sV\u6159
I105
sV\u80d8
I5790
sV\u92e4
I2251
sV\u5de6
I1229
sV\u9179
I2761
sV\u5a7f
I6390
sV\u6183
I7304
sV\u8602
I1716
sV\u6f87
I4712
sV\u758b
I4455
sV\u8a0a
I3102
sV\u9e12
I5595
sV\u8797
I6089
sV\u8b9f
I5411
sV\u54a1
I5673
sV\u58a9
I1966
sV\u6cb1
I1130
sV\u4e32
I5817
sV\u5436
I6140
sV\u523a
I1747
sV\u84c1
I6083
sV\u6642
I310
sV\u96cd
I1850
sV\u59d3
I2013
sV\u7e52
I4805
sV\u6ddb
I5017
sV\u4f5c
I313
sV\u885e
I4612
sV\u9662
I3372
sV\u9a6a
I2275
sV\u83ef
I834
sV\u89f3
I6270
sV\u50f9
I997
sV\u7f7c
I7257
sV\u9bff
I5573
sV\u8988
I3271
sV\u7c11
I5883
sV\u5f27
I2050
sV\u652b
I6585
sV\u7aaa
I4281
sV\u632f
I1125
sV\u7737
I2340
sV\u5fbc
I2287
sV\u98be
I6767
sV\u63c4
I2688
sV\u77cc
I7069
sV\u5c51
I4129
sV\u5a55
I2902
sV\u7bd4
I5955
sV\u6059
I6594
sV\u81d8
I3153
sV\u95e0
I5801
sV\u93e4
I2426
sV\u7869
I6597
sV\u5aea
I6598
sV\u6ef2
I5792
sV\u8a75
I4625
sV\u5777
I6411
sV\u74f6
I1748
sV\u9e7d
I2180
sV\u6283
I2491
sV\u768b
I3352
sV\u890a
I1548
sV\u540c
I237
sV\u7a93
I4042
sV\u9d12
I3406
sV\u57a1
I5935
sV\u7620
I4087
sV\u51a5
I577
sV\u842c
I139
sV\u6fb1
I6897
sV\u8e30
I3375
sV\u513a
I5035
sV\u7dbd
I4209
sV\u5b3e
I2885
sV\u694a
I142
sV\u95cd
I4432
sV\u50cf
I2146
sV\u734e
I2679
sV\u5ad3
I6961
sV\u99d5
I1153
sV\u68df
I2949
sV\u7ce7
I3684
sV\u80ef
I4452
sV\u4ff1
I1514
sV\u8af3
I4073
sV\u6874
I3401
sV\u7278
I3829
sV\u9efb
I3504
sS'\x84'
I4532
sV\u4f86
I179
sV\u750d
I3163
sV\u5d92
I6409
sV\u8319
I7330
sV\u619a
I1259
sV\u6b9e
I5691
sV\u9721
I6548
sV\u75a2
I5632
sV\u9b29
I7044
sV\u662b
I6287
sV\u79aa
I1948
sV\u602f
I3307
sV\u97b6
I2429
sV\u7e3b
I4785
sV\u91ba
I4480
sV\u66c0
I6469
sV\u60c4
I5513
sV\u964b
I3886
sV\u74cc
I4430
sV\u904f
I1338
sV\u5955
I2593
sV\u78d4
I5957
sV\u8cdc
I996
sV\u7761
I3635
sV\u55e2
I3577
sV\u7165
I3514
sV\u90e4
I5658
sV\u59ea
I4345
sV\u856d
I735
sV\u63ee
I83
sV\u8975
I6184
sV\u5477
I4403
sV\u5e7b
I4005
sV\u587f
I6562
sV\u7bfe
I6631
sV\u6383
I285
sV\u6d87
I2632
sV\u8e06
I5275
sV\u778b
I3774
sV\u718f
I3243
sV\u920e
I4755
sV\u5914
I1765
sV\u8f9b
I534
sV\u7720
I775
sV\u64ad
I660
sV\u852c
I1541
sV\u6eb1
I4299
sV\u68b5
I2375
sV\u5636
I1235
sV\u7cbd
I7219
sV\u86c1
I6656
sV\u57cb
I562
sV\u9ed1
I1356
sV\u5bd3
I3132
sV\u65d7
I380
sV\u6fdb
I2849
sV\u805a
I1896
sV\u8a5e
I1511
sV\u73e3
I5545
sV\u87eb
I3920
sV\u656c
I2176
sV\u81ef
I601
sV\u6f70
I2059
sV\u7378
I502
sV\u5cfd
I2082
sV\u99ff
I787
sV\u4e86
I33
sV\u528e
I7108
sV\u7e11
I2553
sV\u9f90
I2319
sV\u6696
I859
sV\u609a
I4138
sV\u6a9e
I6735
sV\u9621
I1598
sV\u5323
I546
sV\u5d27
I6763
sV\u672b
I1841
sV\u78aa
I5097
sV\u82ae
I5860
sV\u8cb2
I5744
sV\u7537
I1701
sV\u5dbc
I2589
sV\u8343
I5872
sV\u79d4
I5009
sV\u83d8
I5794
sV\u6c5d
I1342
sV\u8ddc
I6435
sV\u7661
I3687
sV\u54e2
I3248
sV\u7a69
I4201
sV\u9be8
I1055
sV\u846d
I4490
sV\u6c83
I2754
sV\u8b02
I526
sV\u8106
I3069
sV\u7e8f
I1203
sV\u5010
I3969
sV\u5614
I5323
sV\u809b
I5954
sV\u55a9
I6030
sV\u7428
I2939
sV\u6bad
I6201
sV\u8030
I6956
sV\u5f3a
I1329
sV\u553e
I439
sV\u8fc5
I2805
sV\u6146
I5549
sV\u85c9
I2621
sV\u91d1
I84
sV\u7352
I6241
sV\u8956
I7122
sV\u60db
I6093
sV\u855e
I5454
sV\u5860
I6334
sV\u5468
I564
sV\u6070
I3756
sV\u6674
I2369
sV\u5df9
I6773
sV\u8e84
I2537
sV\u6509
I6782
sV\u9090
I4983
sV\u9694
I1215
sV\u8d19
I5449
sV\u831d
I2468
sV\u77aa
I5951
sV\u6e2f
I4704
sV\u7a37
I1525
sV\u5cb8
I1174
sV\u52bc
I4956
sV\u95be
I5223
sV\u4f45
I6943
sV\u6ec4
I661
sV\u8247
I1507
sV\u64c8
I4581
sV\u6d59
I1981
sV\u4fda
I6293
sV\u82dc
I5271
sV\u5be2
I746
sV\u7f65
I4905
sV\u9ee4
I5575
sV\u6dee
I1688
sV\u5a77
I3588
sV\u7ffa
I4098
sV\u75fe
I5148
sV\u6387
I2398
sV\u8006
I3342
sV\u798b
I3268
sV\u860a
I3267
sV\u5b0c
I434
sV\u9212
I7143
sV\u6d18
I5618
sV\u879f
I6248
sV\u5ea5
I5964
sV\u93a7
I5995
sV\u54a9
I5072
sV\u7528
I1910
sV\u8b2c
I2036
sV\u60b1
I4894
sV\u8130
I5913
sV\u66b5
I6820
sV\u8734
I4691
sV\u7cb9
I4198
sV\u543e
I1020
sV\u88c1
I1308
sV\u6046
I3129
sV\u84c9
I456
sV\u59cb
I259
sV\u7252
I4318
sV\u96d5
I503
sV\u6bd7
I5156
sV\u67df
I5377
sV\u5960
I2535
sV\u7de3
I1046
sV\u9a62
I2006
sV\u5f64
I2406
sV\u5568
I6766
sV\u89eb
I6271
sV\u966a
I2099
sV\u6170
I1521
sV\u85f3
I5531
sV\u7d78
I7231
sV\u737c
I3666
sV\u97ff
I415
sV\u6e05
I345
sV\u6409
I6738
sV\u8588
I5453
sV\u7a0d
I2586
sV\u7011
I2480
sV\u9190
I3670
sV\u5292
I48
sV\u9794
I6321
sV\u649e
I3384
sV\u9821
I5006
sV\u76aa
I6057
sV\u98b6
I6195
sV\u5db8
I2958
sV\u69c0
I7351
sV\u4e45
I841
sV\u8347
I3295
sV\u994b
I2471
sV\u7bcc
I5703
sV\u9f4f
I5721
sV\u71d0
I6202
sV\u6c59
I4175
sV\u83dc
I3878
sV\u50e6
I6687
sV\u7469
I3078
sV\u8a6d
I5136
sV\u4f6f
I3012
sV\u6cee
I5550
sV\u8071
I6567
sV\u8675
I3918
sV\u8306
I5160
sV\u580c
I2546
sV\u9f0e
I2235
sV\u7693
I1076
sV\u9112
I1982
sV\u8897
I6784
sV\u601c
I6514
sV\u849f
I6399
sV\u7a20
I2226
sV\u69ad
I3315
sV\u65b5
I4681
sV\u7fb9
I2809
sV\u903c
I613
sV\u6942
I2891
sV\u87c9
I6910
sV\u5acb
I3852
sV\u93d1
I2148
sV\u56d3
I6145
sV\u7152
I3792
sV\u95d5
I582
sV\u68d7
I2715
sV\u8b56
I5884
sV\u4e58
I378
sV\u62db
I1469
sV\u5c64
I1769
sV\u5668
I1646
sV\u8aeb
I2892
sV\u51fd
I723
sV\u707c
I2910
sV\u6709
I522
sV\u5192
I2854
sV\u7515
I1742
sV\u6b96
I3339
sV\u8f19
I2417
sV\u811d
I3898
sV\u9b21
I3707
sV\u73a6
I5782
sV\u8fae
I5795
sV\u6633
I4132
sV\u5eb8
I3840
sV\u723b
I5918
sV\u9dba
I4159
sV\u97be
I6640
sV\u6cc4
I3133
sV\u66c8
I3610
sV\u9c4f
I6348
sV\u5351
I3154
sV\u72d0
I2201
sV\u74d4
I3764
sV\u615d
I2927
sV\u9ae0
I4948
sV\u7769
I7043
sV\u96e8
I450
sV\u896d
I6878
sV\u6fee
I5224
sV\u61f2
I4310
sV\u7dfa
I6242
sV\u6187
I7014
sV\u7b8b
I3977
sV\u840a
I2160
sV\u7d8f
I3334
sV\u9e0e
I3246
sV\u5310
I5735
sV\u5514
I6972
sV\u4e99
I3593
sV\u6f18
I5469
sV\u839b
I7167
sV\u611c
I2106
sV\u7b20
I1900
sV\u68ad
I3306
sV\u62b1
I265
sV\u5a36
I2332
sV\u5c3a
I425
sV\u4fc3
I1101
sV\u6842
I324
sV\u6246
I2926
sV\u86c9
I6971
sV\u98cd
I3059
sV\u57d3
I7176
sV\u7052
I7117
sV\u8a56
I3855
sV\u63db
I760
sV\u8c5a
I3899
sV\u65df
I4265
sV\u865e
I2032
sV\u7fe3
I5931
sV\u71e7
I5086
sV\u9266
I3174
sV\u946a
I2122
sV\u8def
I1416
sV\u6574
I2515
sV\u717c
I7305
sV\u6a01
I5689
sV\u8b80
I1718
sV\u6c05
I2690
sV\u8d84
I4798
sV\u6609
I5459
sV\u9594
I5399
sV\u6c9a
I4074
sV\u9c25
I5725
sV\u74aa
I6137
sV\u80b2
I3421
sV\u733b
I7093
sV\u753f
I4274
sV\u6bc0
I2145
sV\u6dc4
I4136
sV\u8147
I3712
sV\u67c8
I7284
sV\u584d
I4836
sV\u75d4
I6722
sV\u7a61
I4109
sV\u7c65
I1907
sV\u52e6
I6265
sV\u7669
I6650
sV\u6eee
I6804
sV\u8271
I1260
sV\u60f2
I5775
sV\u8475
I2259
sV\u7af6
I716
sV\u9e79
I4397
sV\u537b
I3139
sV\u7cfa
I4176
sV\u907d
I3109
sV\u76fe
I5401
sV\u6883
I6816
sV\u6687
I3104
sV\u5e0c
I983
sV\u5410
I64
sV\u829f
I3665
sV\u7c20
I7141
sV\u5ba5
I3413
sV\u96a7
I6157
sV\u7028
I1905
sV\u8234
I4921
sV\u79b9
I2583
sV\u9838
I961
sV\u77bd
I5887
sV\u81c9
I3442
sV\u5ccb
I4997
sV\u7752
I6965
sV\u80e5
I1969
sV\u8b5a
I4733
sV\u5c60
I1502
sV\u76e7
I887
sV\u8ceb
I3733
sV\u936a
I5227
sV\u9ef7
I4100
sV\u59f9
I1914
sV\u57fd
I2778
sV\u767c
I722
sV\u8a84
I5216
sV\u6109
I2462
sV\u7511
I3888
sV\u6d96
I4143
sV\u7fa2
I7181
sV\u4eac
I926
sV\u6033
I4885
sV\u7e37
I1845
sV\u56bc
I4196
sV\u9053
I204
sV\u88d8
I1358
sV\u86dc
I6209
sV\u7d61
I1139
sV\u7169
I2329
sV\u90e8
I2527
sV\u53ea
I871
sV\u5e77
I1244
sV\u547b
I4498
sV\u527f
I2175
sV\u71fe
I6600
sV\u6787
I7276
sV\u820a
I1061
sV\u7b8f
I2729
sV\u5510
I1652
sV\u859b
I2100
sV\u5ca1
I1051
sV\u7d20
I79
sV\u62b5
I1458
sV\u8cc1
I3571
sV\u5dcb
I6644
sV\u9ecd
I1977
sV\u784e
I5289
sV\u65db
I5854
sV\u805e
I769
sV\u79e3
I4191
sV\u5b64
I1200
sV\u77e7
I5231
sV\u5168
I907
sV\u6f6c
I6959
sV\u81f3
I308
sV\u58f9
I5114
sV\u4e82
I1214
sV\u6a05
I7239
sV\u8188
I7359
sV\u9394
I4639
sV\u6c96
I2979
sV\u8819
I7177
sV\u609e
I2526
sV\u74a6
I7364
sV\u6d2b
I5506
sV\u59b8
I3608
sV\u733f
I2397
sV\u6dc0
I5163
sV\u8943
I5159
sV\u9b4f
I1827
sV\u5451
I7105
sV\u665d
I949
sV\u9de0
I7189
sV\u5ee2
I2863
sV\u9be4
I2208
sV\u54e6
I4333
sV\u7069
I274
sV\u8e6d
I1979
sV\u68ee
I1031
sV\u8471
I4475
sV\u66f2
I1017
sV\u5f77
I1804
sV\u7cf6
I5674
sV\u557b
I3894
sV\u7afa
I2511
sV\u967d
I218
sV\u537f
I631
sV\u4e00
I25
sV\u6487
I5176
sV\u8706
I5967
sV\u810a
I3968
sV\u5610
I7085
sV\u5014
I5257
sV\u869b
I6622
sV\u641c
I2897
sS'\x9f'
I4541
sV\u5fa1
I1624
sV\u7e20
I3178
sV\u59a5
I4981
sV\u7228
I2970
sV\u8034
I6568
sV\u75bd
I6739
sV\u6746
I4838
sV\u83c9
I5551
sV\u614a
I3075
sV\u6cd7
I2557
sV\u66db
I2579
sV\u895a
I7051
sV\u60df
I1567
sV\u5864
I4968
sV\u9766
I4769
sV\u8eeb
I2355
sV\u916a
I4980
sV\u88ef
I1844
sV\u6670
I6279
sV\u9cf7
I2421
sV\u7a78
I4427
sV\u96fb
I1028
sV\u55fd
I2518
sV\u90ff
I6681
sV\u6f01
I1574
sV\u6905
I1637
sV\u6309
I821
sV\u7d0d
I2061
sV\u8b19
I3500
sV\u639e
I4013
sV\u5a23
I6720
sV\u7da2
I5151
sV\u6233
I5471
sV\u7c37
I913
sV\u5ab8
I5123
sV\u68c4
I1401
sV\u62c8
I3750
sV\u984f
I248
sV\u5751
I4040
sV\u5155
I3229
sV\u6b59
I4841
sV\u655d
I1413
sV\u7f61
I5739
sV\u9ee0
I3632
sV\u5de2
I875
sV\u7965
I3194
sV\u8d6d
I4414
sV\u8771
I6152
sV\u7ff6
I4881
sV\u73fe
I3909
sV\u6b83
I3702
sV\u6587
I591
sV\u8606
I2506
sV\u798f
I3279
sV\u9a0e
I230
sV\u7393
I7354
sV\u5114
I1816
sV\u8d97
I5819
sV\u651c
I1107
sV\u52a9
I2985
sV\u7328
I168
sV\u60b5
I1027
sV\u5e36
I174
sV\u74bd
I2119
sV\u523e
I4663
sV\u6c42
I1809
sV\u7a4e
I2982
sV\u7be3
I5978
sV\u5368
I1526
sV\u8feb
I2073
sV\u6174
I5879
sV\u97fb
I2265
sV\u54fd
I6178
sV\u5492
I4010
sV\u6e96
I2352
sV\u7ca2
I3508
sV\u9825
I7340
sV\u5527
I3851
sV\u76a6
I3517
sV\u6f2b
I2284
sV\u84b2
I889
sV\u5bb8
I2124
sV\u98ba
I2749
sV\u6fc0
I628
sV\u9f4b
I2723
sV\u5c4d
I2304
sV\u7dcc
I4231
sV\u5055
I4027
sV\u71d4
I4728
sV\u4ed6
I461
sV\u6a59
I1440
sV\u85dc
I1542
sV\u7e61
I868
sV\u7269
I592
sV\u8671
I6013
sV\u64f2
I707
sV\u577b
I3536
sV\u947d
I3742
sV\u5000
I4406
sV\u7483
I2428
sV\u5c08
I2017
sV\u6c93
I18
sV\u4e14
I346
sV\u5599
I6149
sV\u7a1c
I3478
sV\u9e9f
I798
sV\u6020
I5484
sV\u552e
I5920
sV\u79b1
I3431
sV\u9830
I123
sV\u7fb5
I7262
sV\u65b9
I786
sV\u8438
I2403
sV\u6bbd
I3171
sV\u91c1
I5587
sV\u7946
I3079
sV\u654e
I5056
sV\u8fd5
I5335
sV\u72d7
I3705
sV\u975a
I6388
sV\u64e3
I328
sV\u6ae7
I6302
sV\u8966
I3769
sV\u90eb
I6706
sV\u9cf3
I896
sV\u5ff5
I1240
sV\u82f7
I3662
sV\u6478
I6862
sV\u8eff
I4626
sV\u9080
I392
sV\u9684
I4206
sV\u7d09
I3198
sV\u5f8a
I3066
sV\u630d
I4488
sV\u6911
I6312
sV\u6f15
I2641
sV\u8e94
I5874
sV\u5217
I663
sV\u5e1f
I3371
sV\u63a2
I1516
sV\u8725
I4692
sV\u69a6
I5345
sV\u52ac
I5142
sV\u7c33
I5079
sV\u87ba
I4721
sV\u8dbe
I4178
sV\u5141
I5256
sV\u7cc8
I5950
sV\u62cc
I6705
sV\u4f55
I354
sV\u6ed4
I1883
sV\u7559
I30
sV\u94d8
I5405
sV\u5dde
I466
sV\u86e4
I5130
sV\u6d69
I1084
sV\u8ce8
I5789
sV\u7bf2
I5863
sV\u61f6
I4829
sV\u8b7d
I2423
sV\u5100
I1709
sV\u5704
I3637
sV\u7b87
I3544
sV\u9806
I2747
sV\u9e0a
I5502
sV\u678f
I6800
sV\u840e
I2928
sV\u6d93
I2823
sV\u9397
I2173
sV\u7518
I387
sV\u542e
I5522
sV\u9f34
I7240
sV\u90c1
I4661
sV\u7242
I6094
sV\u96c5
I2026
sV\u5bc7
I2972
sV\u5b5c
I6028
sV\u7fdf
I2893
sV\u736c
I4067
sV\u5ef5
I6530
sV\u6578
I2107
sV\u7001
I3238
sV\u7c09
I3214
sV\u5e8a
I4646
sV\u620d
I1239
sV\u5317
I386
sV\u9419
I4158
sV\u769a
I5211
sV\u5f1f
I1618
sV\u6eaa
I688
sV\u772f
I6662
sV\u7d33
I2677
sV\u5fb4
I5657
sS'\xb6'
I4531
sV\u6f3f
I1080
sV\u71c0
I5101
sV\u814b
I4212
sV\u69d0
I3604
sV\u50d6
I7050
sV\u7459
I6214
sV\u56da
I2113
sV\u5cde
I6670
sV\u6061
I3108
sV\u81e0
I3838
sV\u6c69
I4701
sV\u8de8
I2719
sV\u516b
I289
sV\u576f
I4777
sV\u74ee
I4708
sV\u9871
I6607
sV\u5d73
I6566
sV\u9e75
I3875
sV\u60f6
I3156
sV\u8479
I2489
sV\u4f7f
I651
sV\u5200
I719
sV\u9102
I2374
sV\u5404
I454
sV\u7887
I6324
sV\u9b06
I6239
sV\u648f
I5180
sV\u6e93
I6055
sV\u8912
I2988
sV\u9097
I6276
sV\u599d
I930
sV\u6424
I4847
sV\u902c
I5994
sV\u572e
I5812
sV\u7bb1
I3626
sV\u9a30
I1350
sV\u7db5
I872
sV\u67b9
I5314
sV\u8638
I4200
sV\u93c1
I4338
sV\u58c7
I2281
sV\u7b46
I1623
sV\u81cd
I4680
sV\u674e
I371
sV\u8dd5
I3748
sV\u7cdf
I2874
sV\u68e7
I2604
sV\u8b66
I657
sV\u51ed
I579
sV\u7a70
I5605
sV\u9ef3
I4336
sV\u5df5
I2631
sV\u80f7
I2234
sV\u9280
I12
sV\uff09
I6542
sV\u9e88
I1953
sV\u610d
I3989
sS'\x8c'
I4516
sV\u8c94
I3347
sV\u7396
I6014
sV\u5a1b
I946
sV\u759a
I5738
sV\u5c1f
I6899
sV\u7f9e
I203
sV\u8525
I2727
sV\u8f29
I2730
sV\u6daa
I5080
sV\u50ac
I1349
sV\u742f
I3300
sV\u97ae
I849
sV\u85ba
I5569
sV\u5341
I22
sV\u72c0
I2835
sV\u5545
I5029
sV\u9847
I2204
sV\u824b
I4922
sV\u53d6
I1681
sV\u96d8
I2984
sV\u55da
I3016
sV\u795d
I3539
sV\u98dc
I499
sV\u8ee8
I5830
sV\u77ee
I6704
sV\u5e73
I155
sV\u63f6
I2687
sV\u65fa
I4608
sV\u6ffe
I4035
sV\u5504
I5515
sV\u5f08
I4464
sV\u8812
I6132
sV\u5699
I5668
sV\u7718
I5413
sV\u87a3
I4562
sV\u6524
I4582
sV\u70ad
I2817
sV\u562e
I6304
sV\u7ab1
I5563
sV\u7cb5
I2363
sV\u57c3
I2443
sV\u7042
I6317
sV\u7a46
I1866
sV\u7c4a
I6772
sV\u8cd5
I6131
sV\u945a
I7348
sV\u67e3
I7065
sV\u69e7
I4062
sV\u8a66
I2035
sV\u8c6a
I709
sV\u50ed
I6135
sV\u716c
I4949
sV\u7405
I2920
sV\u7e09
I5221
sV\u5c8a
I5554
sV\u600d
I7036
sV\u6a11
I6940
sV\u8b90
I950
sV\u5117
I6844
sV\u7296
I6582
sV\u749a
I3256
sV\u5d1f
I4359
sV\u8221
I4729
sV\u60a2
I3105
sV\u732b
I3693
sV\u51ac
I1040
sV\u752f
I1355
sV\u96ae
I6993
sV\u5bb0
I1482
sV\u6137
I6493
sV\u6b3b
I6785
sV\u84ba
I2536
sV\u6d3f
I4703
sV\u73c0
I4383
sV\u9743
I6017
sV\u61cc
I5402
sV\u8f53
I4254
sV\u52d6
I1588
sV\u785d
I7102
sV\u85e4
I1636
sV\u8fe8
I4140
sV\u906d
I1168
sV\u76ee
I1500
sV\u78f2
I4628
sV\u62f6
I6333
sV\u8679
I210
sV\u64fa
I3910
sV\u887d
I5303
sV\u6efe
I6087
sV\u9702
I3429
sV\u7e87
I4438
sV\u9d06
I6709
sV\u628f
I7283
sV\u6893
I2769
sV\u8f12
I3993
sV\u9697
I2691
sV\u7018
I2302
sS'\xa3'
I4529
sV\u8ea7
I3749
sV\u77ad
I6975
sV\u962c
I3950
sV\u7db1
I2711
sV\u7bb5
I5966
sV\u8e3c
I6968
sV\u7d46
I3931
sV\u99c9
I6161
sV\u614e
I1172
sV\u8dd1
I5858
sV\u7adf
I571
sV\u995e
I4492
sV\u60e3
I4672
sV\u8d66
I964
sV\u57ed
I6665
sV\u766c
I4607
sV\u5df1
I1019
sV\u5bf5
I368
sV\u7a74
I2584
sV\u6e7c
I4003
sV\u5782
I141
sV\u670d
I705
sV\u868c
I4079
sV\u6d11
I2866
sV\u5617
I250
sV\u9119
I3070
sV\u5a1f
I2360
sV\u8521
I2433
sV\u6baa
I3230
sV\u56ac
I2290
sV\u91ae
I3361
sV\u5541
I6255
sV\u72c4
I2001
sV\u5949
I976
sV\u78c8
I6015
sV\u6cd0
I5076
sV\u8853
I165
sV\u7159
I891
sV\u53da
I3987
sV\u7f5d
I1385
sV\u9edc
I4311
sV\u59de
I6175
sV\u6969
I5376
sV\u88e8
I4813
sV\u526f
I4066
sV\u71ee
I2014
sV\u8179
I2510
sV\u5304
I6010
sV\u7f87
I2344
sV\u9a0a
I6443
sV\u800e
I5672
sV\u5099
I2953
sV\u7cb1
I4130
sV\u9d30
I5487
sV\u6ebd
I5262
sV\u8f3c
I6824
sV\u7642
I4571
sV\u7a4a
I5435
sV\u8cd1
I6913
sV\u77d7
I4723
sV\u985e
I3022
sV\u61e3
I2484
sV\u8662
I3351
sV\u776c
I6988
sV\u5af5
I7349
sV\u7b74
I6382
sV\u6f7c
I4867
sV\u9580
I160
sV\u6c11
I2653
sV\u4e92
I3040
sV\u6a15
I7332
sV\u9019
I3770
sV\u5d1b
I5696
sV\u9e1d
I1291
sV\u66a2
I3041
sV\u752b
I2432
sV\u5db0
I5598
sV\u5bb4
I399
sV\u6d3b
I1884
sV\u5849
I7186
sV\u854b
I6821
sV\u834f
I5429
sV\u6bd4
I1846
sV\u91d8
I3287
sV\u58de
I2923
sV\u536f
I4258
sV\u5973
I497
sV\u990a
I2125
sV\u4e10
I7307
sV\u9e9b
I5712
sV\u6620
I1143
sV\u82a3
I3495
sV\u8ca7
I1833
sV\u9834
I3037
sV\u8238
I2083
sV\u97c1
I4599
sV\u52c3
I4807
sV\u91c5
I6365
sV\u9bc9
I1625
sV\u794a
I7146
sV\u85cd
I2409
sV\u634e
I6247
sV\u8fd1
I1196
sV\u9756
I3396
sV\u896a
I843
sV\u90ef
I6403
sV\u5ff1
I7169
sV\u7e70
I1660
sV\u8efb
I3822
sV\u7701
I2098
sV\u9084
I442
sV\u8e90
I4898
sV\u9319
I4941
sV\u5e1b
I665
sV\u9d1d
I7260
sV\u6fa6
I275
sV\u54ac
I4001
sV\u93ae
I2611
sV\u6e3b
I6633
sV\u81ba
I2550
sV\u5145
I1797
sV\u7ac8
I1551
sV\u4f51
I6669
sV\u51da
I6326
sV\u5bde
I1498
sS'\xe4'
I4509
sV\u566b
I2040
sV\u73ee
I921
sV\u7df2
I2868
sV\u61fa
I4002
sV\u6bfe
I6853
sV\u7383
I6314
sV\u5104
I1089
sV\u5b08
I5652
sV\u678b
I6925
sV\u980a
I5420
sV\u4f10
I931
sV\u7318
I4947
sV\u7d1c
I6216
sV\u522e
I5331
sV\u62b9
I3751
sV\u8338
I2214
sV\u6cbd
I1873
sV\u96c1
I476
sV\u53c3
I1630
sV\u90c5
I3015
sV\u5dc7
I3757
sV\u7e46
I2860
sV\u784a
I7363
sV\u84cd
I6069
sV\u624e
I6380
sV\u8ed1
I7155
sV\u88d5
I3510
sV\u75d7
I6481
sV\u7fdb
I2870
sV\u79df
I2451
sV\u63e3
I5260
sV\u8462
I2140
sV\u54ed
I624
sV\u756c
I4322
sV\u7f70
I3099
sV\u6d7c
I3058
sV\u89ff
I6019
sV\u7601
I4967
sV\u5482
I5386
sV\u7005
I5287
sV\u9184
I7223
sV\u7a09
I5348
sV\u588a
I1520
sV\u640d
I635
sV\u7696
I2787
sV\u5f1b
I1992
sV\u7a9e
I7302
sV\u55ac
I2104
sV\u712f
I7053
sV\u7b33
I3169
sV\u80ba
I3453
sV\u693f
I3784
sV\u8abe
I7077
sV\u71c4
I3290
sV\u5a49
I2341
sV\u65cc
I1042
sV\u69d4
I1746
sV\u7259
I960
sV\u93d8
I2852
sV\u50da
I2630
sV\u7c5d
I6808
sV\u6661
I4419
sV\u87e0
I1680
sV\u6065
I1887
sV\u576b
I6614
sV\u5b73
I4441
sV\u7cf2
I3958
sV\u60fa
I5871
sV\u7c83
I1112
sV\u7287
I5131
sV\u9106
I5842
sV\u5408
I550
sV\u6493
I5258
sV\u5d99
I4996
sV\u909b
I2440
sV\u539d
I6232
sV\u969f
I3617
sV\u6e24
I1421
sV\u6428
I6342
sV\u7bad
I471
sV\u71b1
I75
sV\u4f3a
I6092
sV\u823c
I6847
sV\u80b4
I6472
sV\u99c1
I2575
sV\u52c7
I181
sV\u95c9
I4431
sV\u81d1
I6289
sV\u9f5a
I4937
sV\u525c
I5675
sV\u76df
I3038
sV\u6ce3
I1449
sV\u8166
I3349
sV\u98eb
I4326
sV\u9eef
I4323
sV\u51f1
I2573
sV\u7070
I219
sV\u8af7
I2654
sV\u627c
I4803
sV\u5b82
I5705
sV\u9e84
I6070
sV\u8a8c
I5137
sS'\x90'
I4542
sV\u6715
I6316
sV\u7996
I4861
sV\u7f9a
I5579
sV\u6ba2
I4396
sV\u7433
I2389
sV\u56b4
I676
sV\u85be
I6071
sV\u8e4f
I7138
sV\u8453
I5787
sV\u7d59
I4927
sV\u735d
I7055
sV\u6961
I6058
sV\u88e0
I6840
sV\u586b
I2391
sV\u5473
I2285
sV\u6ffa
I3394
sV\u7d83
I4369
sV\u9a02
I5230
sV\u5f04
I234
sV\u7387
I3386
sV\u9006
I2917
sV\u8212
I1515
sV\u7d18
I5765
sV\u731c
I245
sV\u979f
I7259
sV\u8da3
I1685
sV\u4ea5
I56
sV\u83a7
I5736
sV\u9b2c
I711
sV\u70b1
I5263
sV\u9130
I1927
sV\u76b5
I5680
sV\u6cb9
I4061
sV\u62bd
I1305
sV\u98c1
I7279
sV\u5dc3
I6912
sV\u764a
I4624
sV\u8acd
I2023
sV\u6c4e
I2848
sV\u535c
I2243
sV\u77df
I4182
sV\u8a62
I4799
sV\u50f1
I7134
sV\u6d78
I3028
sV\u81fb
I2135
sV\u9980
I5574
sV\u7409
I2427
sV\u9588
I3312
sV\u8b8c
I4116
sV\u6615
I6924
sV\u511b
I7114
sV\u7e9a
I4177
sV\u571f
I1183
sV\u749e
I3087
sV\u8821
I1278
sV\u6aa2
I3767
sV\u792b
I2216
sV\u51b0
I1064
sV\u7533
I1474
sV\u6b37
I4869
sV\u673f
I6576
sV\u79c0
I947
sV\u5e45
I4683
sV\u894b
I5113
sV\u67d4
I2493
sV\u58d6
I4638
sV\u7c59
I1788
sV\u5eda
I1550
sV\u725d
I2354
sV\u93dc
I5268
sV\u8fe4
I2454
sV\u6469
I2492
sV\u596b
I4314
sV\u5f6f
I6439
sV\u9675
I45
sV\u8c79
I2244
sV\u827d
I4589
sV\u64fe
I3561
sV\u5c04
I500
sV\u5608
I2738
sV\u5f99
I4117
sV\u929b
I5132
sV\u6c24
I3095
sV\u6628
I1290
sV\u5f2e
I6764
sV\u5132
I2117
sV\u75b5
I4632
sV\u6fb9
I1206
sV\u8e38
I7199
sV\u803c
I6410
sV\u9bc1
I5536
sV\u97c9
I5781
sV\u754a
I5693
sV\u6f4e
I7226
sV\u83d1
I5547
sV\u85d5
I4437
sV\u5e58
I2405
sV\u505c
I536
sV\u74df
I6684
sV\u975e
I1096
sV\u60e7
I4551
sV\u9aeb
I5629
sV\u856a
I1292
sV\u786c
I3728
sV\u9cef
I4686
sV\u53f1
I727
sV\u82fb
I2561
sV\u84ff
I5272
sV\u7b01
I7010
sV\u5982
I19
sV\u7d05
I122
sV\u7709
I261
sV\u9688
I3462
sV\u690d
I1219
sV\u6311
I2157
sV\u6515
I6199
sV\u8494
I4050
sV\u9f19
I2639
sV\u541f
I894
sV\u779e
I3905
sV\u8729
I5140
sV\u7633
I5343
sV\u91b2
I4749
sV\u8dba
I6395
sV\u9047
I1875
sV\u76c8
I537
sV\u8653
I4882
sV\u64d4
I1930
sV\u5bd6
I7016
sV\u9ed8
I1485
sV\u90dc
I6978
sV\u57de
I6620
sV\u6b61
I945
sV\u8ae0
I2543
sV\u6d65
I4620
sV\u8ce4
I2011
sV\u5c6f
I1059
sV\u7fee
I1770
sV\u6dfa
I1549
sV\u5b00
I7162
sV\u7f83
I5825
sV\u9802
I2033
sV\u7187
I5751
sV\u9206
I7205
sV\u5708
I3927
sV\u8012
I3824
sV\u9997
I6639
sV\u711c
I6459
sV\u959f
I5077
sV\u6b20
I3807
sV\u8fa3
I6901
sV\u6728
I1077
sV\u78ad
I1189
sV\u992c
I5477
sV\u74b5
I1823
sV\u8f38
I606
sV\u60bd
I355
sV\u5fc3
I298
sV\u7246
I3641
sV\u96c9
I2993
sV\u6e4e
I2812
sV\u82d1
I1621
sV\u6052
I3864
sV\u5f58
I6869
sV\u515c
I4621
sV\u75df
I6726
sV\u965e
I6511
sV\u8862
I586
sV\u8266
I4823
sV\u9def
I1103
sV\u7370
I4788
sV\u97f3
I865
sV\u6f78
I2517
sV\u617c
I4429
sV\u85ff
I1543
sV\u9d84
I5134
sV\u7609
I6492
sV\u9788
I7180
sV\u4e8e
I485
sV\u6211
I539
sV\u8594
I2501
sV\u5917
I6753
sS'\x98'
I4534
sV\u901d
I2705
sV\u68a2
I3628
sV\u8629
I5018
sV\u59ac
I444
sV\u7d2f
I2306
sV\u8cba
I3424
sV\u653f
I969
sV\u5a41
I5251
sV\u7bc0
I806
sV\u5c45
I238
sV\u9147
I3140
sV\u5649
I3739
sV\u69cc
I85
sV\u63d0
I1106
sV\u5ad6
I799
sV\u7e59
I6433
sV\u705d
I6026
sV\u91dc
I3867
sV\u56de
I377
sV\u6a61
I5320
sV\u5b6b
I2144
sV\u5d6f
I1132
sV\u5773
I4279
sV\u807d
I1375
sV\u66fe
I770
sV\u9f02
I6264
sV\u7687
I820
sV\u5008
I4319
sV\u890e
I5976
sV\u8712
I4696
sV\u9e97
I1000
sV\u5999
I1275
sV\u6028
I2109
sV\u592e
I923
sV\u9234
I5047
sV\u863c
I5008
sV\u9dc1
I2636
sV\u8fcd
I2185
sV\u5858
I273
sV\u9b5a
I1160
sV\u68e3
I1419
sV\u8f62
I167
sV\u5fed
I6851
sV\u9aef
I2563
sV\u7470
I4235
sV\u53f5
I4676
sV\u84fb
I5619
sV\u667c
I6423
sV\u5f82
I1642
sV\u5586
I6917
sV\u7109
I2225
sV\u9088
I1334
sV\u8490
I3237
sV\u7d96
I6685
sV\u9919
I4931
sV\u541b
I119
sV\u8b25
I6655
sV\u8129
I4031
sV\u7c2b
I895
sV\u63aa
I3814
sV\u99ae
I2133
sV\u97b2
I6104
sV\u623f
I885
sV\u81be
I3904
sV\u7ac4
I1445
sV\u5149
I505
sV\u70c8
I1246
sV\u4f4d
I1672
sV\u6ecc
I2882
sV\u64d0
I6254
sV\u62d4
I2732
sV\u5dd6
I1003
sV\u96dc
I2314
sV\u6d61
I5568
sV\u6b65
I23
sV\u8ae4
I4184
sS'\xe8'
I4506
sV\u9375
I5813
sV\u6df6
I2547
sV\u61fe
I3849
sV\u9e02
I3695
sV\u582e
I5349
sV\u5632
I4447
sV\u57c7
I4385
sV\u8ecd
I383
sV\u684e
I4407
sV\u84d1
I3793
sV\u6652
I5020
sV\u82d5
I2668
sV\u9c56
I7190
sV\u75db
I2590
sV\u9a5a
I90
sV\u905e
I3117
sV\u8e62
I6960
sV\u67e7
I7087
sV\u8466
I4080
sV\u9deb
I758
sV\u7570
I1391
sV\u52f5
I2450
sV\u8ff7
I852
sV\u6978
I2775
sV\u85fb
I1881
sV\u677c
I1490
sV\u7c01
I6755
sV\u7a05
I2452
sV\u5486
I4108
sV\u7009
I2132
sV\u5f17
I3449
sV\u6ea2
I2571
sV\u8a25
I5692
sV\u7d2b
I148
sV\u5fac
I3713
sV\u7b2f
I6564
sV\u96b2
I4151
sV\u8cb6
I4773
sV\u653b
I2425
sV\u5c41
I7132
sV\u7bc4
I3497
sV\u5049
I3524
sV\u71c8
I2592
sV\u4e4d
I3282
sV\u8b4f
I1847
sV\u65d0
I5442
sV\u8153
I6854
sV\u63d4
I6535
sV\u99d8
I4166
sV\u5ada
I6918
sV\u97dc
I3177
sV\u50de
I3203
sV\u6c61
I5308
sV\u6069
I366
sV\u81e8
I725
sV\u5d6b
I5120
sV\u76f2
I3778
sV\u8879
I7029
sV\u6afa
I5934
sV\u5e00
I6465
sV\u9d02
I5110
sV\u7487
I3176
sV\u9706
I1959
sV\u5208
I2943
sV\u688f
I4408
sV\u8b0e
I5746
sV\u5b99
I2269
sV\u969b
I1276
sV\u559d
I3789
sV\u6e20
I2062
sV\u8aa3
I5562
sV\u7dad
I2456
sV\u4f36
I4924
sV\u65bd
I1299
sV\u843c
I2249
sV\u7d42
I428
sV\u54c7
I5849
sV\u4ecb
I3365
sV\u6b4e
I519
sV\u81d5
I4567
sV\u7cd7
I6428
sV\u76db
I590
sV\u70df
I364
sV\u8766
I3556
sV\u816a
I6561
sV\u7c6c
I2716
sV\u98ef
I1836
sV\u7670
I6805
sV\u8cf7
I6283
sV\u86fb
I4295
sV\uff01
I4651
sV\u5d82
I1783
sV\u518a
I3374
sV\u8c8c
I2153
sV\u6115
I7361
sS'\x94'
I4539
sV\u7f96
I1336
sV\u501f
I553
sV\u739e
I5117
sV\u8925
I3455
sV\u7e2b
I700
sV\u782f
I2382
sV\u9bae
I493
sV\u50b4
I5902
sV\u89ba
I1486
sV\u9a43
I2045
sV\u5349
I4161
sV\u8e4b
I4214
sV\u6ccc
I7252
sV\u8253
I4245
sV\u60d4
I5609
sV\u5fd6
I5582
sV\u9ad8
I135
sV\u59da
I800
sV\u755d
I1607
sV\u6965
I6790
sV\u6369
I5327
sV\u6ff6
I4557
sV\u63fe
I3900
sV\u7587
I2327
sV\u5308
I730
sV\u8a0e
I1253
sV\u9d97
I5621
sV\u751c
I3759
sV\u4ea1
I572
sV\u6f20
I819
sV\u6328
I7006
sV\u9730
I3612
sV\u9134
I4120
sV\u5bc3
I4810
sV\u55c7
I6936
sV\u4fcb
I6994
sV\u704a
I6281
sV\u7dd7
I4165
sV\u5b58
I264
sV\u77db
I4890
sV\u985a
I6893
sV\u555c
I5045
sV\u71df
I795
sV\u925e
I1991
sV\u4f60
I3760
sV\u8c62
I5780
sV\u5ced
I2289
sV\u50f5
I2303
sV\u7174
I6038
sV\u6b78
I400
sV\u87fb
I1170
sV\u7e01
I7098
sV\u6015
I2861
sV\u5d17
I4801
sV\u7e96
I2827
sV\u789a
I7228
sV\u511f
I3928
sV\u8e21
I6825
sV\u8eb6
I2886
sV\u82be
I5524
sV\u7fc0
I6396
sV\u9b43
I5412
sV\u5249
I5783
sV\u894f
I6609
sV\u61d4
I5529
sV\u5ed6
I5816
sV\u58da
I2599
sV\u95dc
I814
sV\u52de
I1161
sV\u5f6b
I2150
sV\u5373
I1373
sV\u9075
I2447
sV\u8a79
I4737
sV\u68fa
I2103
sV\u62fe
I1872
sV\u8181
I4584
sV\u6c08
I4467
sV\u568f
I5602
sV\u9f95
I4071
sV\u6599
I2291
sV\u871a
I7163
sV\u9322
I1976
sV\u77a5
I3583
sS'\xab'
I4513
sV\u86af
I5763
sV\u8cb3
I3515
sV\u6b32
I777
sV\u4fb5
I842
sV\u92b7
I1326
sV\u7136
I65
sV\u98bb
I1730
sV\u773a
I2293
sV\u8c48
I267
sV\u7cd3
I6505
sV\u6458
I2353
sV\u5ae7
I6923
sV\u63ed
I2959
sV\u75f9
I6771
sV\u977a
I5642
sV\u9d7e
I2752
sV\u8403
I3225
sV\u8a07
I6955
sV\u6986
I3049
sV\u900b
I4030
sV\u530d
I5734
sV\u758e
I367
sV\u5911
I5846
sV\u9c13
I5583
sV\u7b92
I3890
sV\u5f15
I928
sV\u681b
I4756
sV\u6e1f
I4702
sV\u90a0
I5319
sV\u96a4
I6160
sV\u5faa
I2365
sV\u832d
I5600
sV\u62ac
I4679
sV\u68b0
I5270
sV\u8f35
I6967
sV\u5237
I2277
sV\u83c2
I7031
sV\u734d
I5388
sV\u52cc
I6109
sV\u7f55
I1886
sV\u885b
I604
sV\u67da
I2776
sV\u8e5f
I5201
sV\u9463
I4011
sV\u79e6
I215
sV\u5d69
I1727
sV\u666f
I1001
sV\u7277
I6927
sV\u51f6
I3136
sV\u57fa
I3219
sV\u7e7f
I3947
sV\u5dfe
I538
sV\u6100
I5116
sV\u8c89
I5426
sV\u928d
I7187
sV\u5d93
I5186
sV\u9e95
I6487
sV\u6499
I7366
sV\u861a
I1553
sV\u6a9d
I2473
sV\u9826
I6084
sV\u87af
I2508
sV\u8db3
I323
sV\u7c3e
I845
sV\u65c3
I1994
sV\u71cb
I4150
sV\u9f54
I6880
sV\u6558
I2628
sV\u8add
I6649
sV\u6b5c
I6996
sV\u4fdf
I2383
sV\u90e1
I2018
sV\u55e3
I2815
sV\u5be7
I391
sV\u9ce9
I4616
sV\u62ed
I1472
sV\u68f1
I5507
sV\u8a72
I4008
sV\u9076
I802
sV\u7afd
I2740
sV\u8b07
I4183
sV\u970f
I3357
sV\u7a92
I4353
sV\u5e15
I4761
sV\u8b9c
I2064
sV\u5eaa
I5831
sV\u63ac
I1344
sV\u8831
I3680
sV\u8e35
I3594
sV\u6fb4
I5351
sV\u6041
I6367
sV\u6645
I7150
sV\u8eca
I449
sV\u9ad2
I1633
sV\u7e55
I5543
sV\u66da
I5342
sV\u8f5f
I3573
sV\u6cde
I6328
sV\u72e2
I6079
sV\u5c69
I5926
sV\u676f
I198
sV\u8ff4
I258
sV\u7377
I5730
sV\u50f6
I5530
sV\u56fa
I1755
sV\u7f7f
I6730
sV\u6200
I752
sV\u8585
I6245
sV\u918d
I3669
sV\u548f
I5741
sV\u9b91
I1619
sV\u7c14
I1899
sV\u851a
I2549
sV\u8f1e
I6002
sV\u9122
I2681
sV\u75a5
I4606
sV\u7fa9
I650
sV\u84af
I4989
sV\u672e
I2791
sV\u7336
I1014
sV\u753a
I7045
sV\u7f3e
I3896
sV\u8e48
I2322
sV\u74cf
I847
sV\u574e
I3461
sV\u89dd
I3385
sV\u93e1
I318
sV\u95e5
I4293
sV\u7464
I317
sV\u876e
I5344
sV\u8972
I3116
sV\u6df5
I2012
sV\u77f9
I3951
sV\u587c
I4690
sV\u9f7e
I5942
sV\u6182
I352
sV\u6b86
I4118
sV\u4f09
I646
sV\u920b
I6703
sV\u6017
I6172
sV\u6a1b
I5292
sV\u889c
I3444
sV\u51a2
I3613
sV\u7827
I1712
sV\u5ba6
I3145
sV\u9ea8
I7154
sV\u5daa
I3355
sV\u6cb4
I3195
sV\u9739
I5108
sV\u5c3f
I3741
sV\u81c2
I2439
sV\u6545
I529
sV\u97ce
I4827
sV\u7b51
I1242
sV\u99d2
I1818
sV\u7d55
I598
sV\u63d6
I136
sV\u8a5b
I4329
sV\u6fde
I4857
sV\u9663
I793
sV\u9867
I481
sV\u7be6
I5381
sV\u5f69
I382
sV\u7dea
I4963
sV\u646f
I5622
sV\u8cf4
I2307
sV\u53f6
I3302
sV\u98fc
I5144
sV\u6504
I3288
sV\u710c
I5945
sV\u7b10
I6303
sV\u7d14
I3783
sV\u689d
I692
sV\u8e1e
I4321
sV\u5320
I2777
sV\u9022
I132
sV\u83ab
I706
sV\u85af
I5354
sV\u6832
I5905
sV\u91b7
I5972
sV\u7236
I521
sV\u9dbf
I6159
sV\u7e3e
I3331
sV\u8340
I4082
sV\u914c
I1093
sV\u75cf
I6150
sV\u564e
I4654
sV\u5852
I4833
sV\u86d9
I4205
sV\u88dd
I2544
sV\u7360
I6546
sV\u7564
I3530
sV\u59e7
I6364
sV\u7f68
I4232
sV\u8872
I4038
sV\u9276
I6749
sV\u78fd
I5821
sV\u597c
I6305
sV\u8703
I4741
sV\u8907
I3239
sV\u4e09
I62
sV\u500d
I3866
sV\u768e
I1494
sV\u5a11
I3651
sV\u9f13
I773
sV\u8798
I6892
sV\u6d1f
I5896
sV\u4e9e
I1888
sV\u95a4
I112
sV\u7927
I5365
sV\u61ac
I6181
sV\u8a31
I1612
sV\u6db4
I4015
sV\u5137
I647
sV\u983d
I3121
sV\u5d3f
I2710
sV\u6241
I2637
sV\u8cca
I2069
sV\u51cc
I166
sV\u96ce
I6086
sV\u5bd0
I2362
sV\u5dd4
I2312
sV\u62d6
I1179
sV\u64da
I1603
sV\u5261
I1353
sV\u7ae6
I2410
sV\u636b
I1579
sV\u81ec
I5455
sV\u54fa
I4445
sV\u99fc
I6444
sV\u8385
I5520
sV\u548b
I5098
sV\u978d
I13
sV\u5893
I2416
sV\u7a14
I3356
sV\u5420
I1763
sV\u9722
I3428
sV\u5224
I3802
sV\u9d26
I881
sV\u6f32
I2093
sV\u733a
I7347
sV\u5fbd
I2906
sV\u793e
I1583
sV\u8244
I6707
sV\u6ec7
I6452
sV\u964c
I1045
sV\u78d3
I7084
sV\u9a54
I6832
sV\u81d9
I6761
sV\u6e5c
I6663
sV\u95e1
I2802
sV\u7460
I6359
sV\u7868
I4627
sV\u816e
I5213
sV\u6df1
I37
sV\u7ffd
I6519
sV\u5e7c
I3841
sV\u8003
I3072
sV\u6b8a
I815
sV\u570d
I2990
sV\u5d11
I1628
sV\u9813
I2744
sV\u8098
I4186
sV\u6c1b
I828
sV\u6a1f
I2725
sV\u7023
I4292
sV\u57a2
I1951
sV\u7e27
I5645
sV\u98a8
I185
sV\u5637
I6496
sV\u91ce
I394
sV\u65d6
I6258
sV\u63da
I381
sV\u4f5d
I7060
sV\u9063
I2977
sV\u77e2
I2052
sV\u7de6
I5346
sV\u5969
I4858
sV\u7bea
I4969
sV\u86ec
I4390
sV\u8af4
I6196
sV\u9efc
I3503
sV\u7a7f
I2170
sV\u6500
I1227
sV\u558b
I7056
sV\u968d
I3879
sV\u7d10
I3027
sV\u5993
I882
sS'\xaf'
I4508
sV\u821a
I6981
sV\u6e9d
I1986
sV\u78a9
I5103
sV\u85ab
I4719
sV\u7436
I2436
sV\u9dbb
I4453
sV\u723a
I3938
sV\u61c3
I3600
sV\u8344
I6253
sV\u73cf
I6778
sV\u504e
I4844
sV\u9b54
I3962
sV\u80d9
I7142
sV\u6158
I1062
sV\u66ed
I6442
sV\u6cf1
I5189
sV\u8e72
I4585
sV\u70f9
I1648
sV\u5178
I3167
sV\u5f7c
I1775
sV\u8103
I5753
sV\u6c86
I4291
sV\u560d
I3929
sV\u708e
I1918
sV\u5c11
I162
sV\u9913
I1233
sV\u6717
I1877
sV\u6d1b
I159
sV\u8f9c
I685
sV\u99a8
I1397
sV\u862d
I480
sV\u71b8
I7140
sV\u6849
I4763
sV\u90ce
I229
sV\u5bd4
I5845
sV\u8757
I5678
sV\u62da
I7204
sV\u4e5d
I343
sV\u8b5f
I2968
sV\u9163
I1973
sV\u5265
I5480
sV\u9f67
I2481
sV\u5869
I4786
sV\u7aea
I6532
sV\u87ec
I2162
sV\u4ef2
I1810
sV\u54f6
I5028
sV\u52fa
I4371
sV\u7e10
I5914
sV\u7814
I3960
sV\u6399
I6508
sV\u811a
I3484
sV\u80af
I447
sV\u6d32
I920
sV\u9ebb
I1087
sV\u5dbd
I68
sV\u98bf
I7289
sV\u8640
I6340
sV\u4f46
I396
sV\u8a48
I7076
sV\u944c
I6240
sV\u70cf
I344
sV\u5d52
I2310
sV\u6258
I3029
sV\u8ddd
I2246
sV\u6c5c
I2396
sV\u97e1
I5771
sV\u7064
I6794
sV\u65ed
I3551
sV\u6ff1
I552
sV\u5278
I5447
sV\u917a
I3381
sV\u5c7c
I7237
sV\u8203
I1711
sV\u6582
I3232
sV\u6f86
I2821
sV\u900f
I3559
sV\u5915
I750
sV\u6417
I2918
sV\u6e1b
I1826
sV\u681f
I5933
sV\u55a2
I7086
sV\u7c27
I4472
sV\u9aa8
I103
sV\u852d
I1274
sV\u8935
I6876
sV\u7cbc
I5219
sV\u80a1
I3181
sV\u85c2
I3257
sV\u6b49
I6522
sV\u5ed0
I3704
sV\u7955
I1570
sV\u8457
I899
sV\u67d6
I6604
sV\u5761
I2673
sV\u5165
I193
sV\u7fe6
I1820
sV\u5b69
I4496
sV\u79ea
I3618
sV\u84ec
I742
sV\u606f
I589
sV\u88f4
I1454
sV\u57f6
I6702
sV\u92f8
I4313
sV\u7e7b
I3204
sV\u51fa
I379
sV\u6700
I1360
sV\u8085
I1865
sV\u578b
I5634
sV\u750c
I3794
sV\u518f
I6179
sV\u9e91
I4024
sV\u5b93
I2010
sV\u8616
I3819
sV\u76a1
I5827
sV\u5720
I5832
sV\u87ab
I6143
sV\u622e
I4766
sV\u52b9
I2564
sV\u7a3e
I6942
sV\u8740
I4975
sV\u6dc7
I2437
sV\u524e
I2774
sV\u9954
I6583
sV\u82d9
I6164
sV\u4fdb
I4955
sV\u8cdd
I5959
sV\u7760
I4156
sV\u53e3
I1108
sV\u7164
I5121
sV\u5de7
I908
sV\u64ed
I7315
sV\u826e
I3440
sV\u68f5
I6250
sV\u9676
I1335
sV\u72f9
I2387
sV\u5378
I4410
sV\u907a
I1285
sV\u7894
I5625
sV\u8303
I1481
sV\u6e86
I6269
sV\u970b
I5839
sV\u540d
I41
sV\u5e11
I3934
sV\u7c92
I3935
sV\u8398
I3211
sV\u97a0
I5589
sV\u5ea6
I809
sV\u65ac
I642
sV\u69b4
I2880
sV\u9239
I6990
sV\u6641
I4765
sV\u84c2
I3110
sV\u88ca
I4859
sV\u59d4
I2152
sV\u66d6
I3240
sV\u60da
I1963
sV\u895f
I1704
sV\u74e2
I1724
sV\u5065
I4208
sV\u8ff0
I2223
sV\u89f4
I58
sV\u7f7b
I7067
sV\u797f
I2183
sV\u8981
I681
sV\u5e8f
I3213
sV\u9191
I2600
sV\u6d99
I7101
sV\u5820
I5203
sV\u9b22
I756
sV\u5e24
I6163
sV\u88ab
I956
sV\u972a
I5135
sV\u6d2e
I726
sV\u6332
I4304
sV\u7f3a
I615
sV\u8840
I514
sV\u8e44
I1236
sV\u78cb
I5770
sV\u9a4c
I6415
sV\u5d4e
I4617
sV\u9050
I2323
sV\u5352
I1038
sV\u9654
I4613
sV\u8dd9
I4325
sV\u99e1
I3937
sV\u7860
I7217
sV\u67f5
I2414
sV\u7df9
I671
sV\u6b82
I3773
sV\u8207
I40
sV\u6a17
I5535
sV\u601b
I5772
sV\u661f
I21
sV\u98a0
I6728
sV\u7c23
I3284
sV\u5ba2
I1
sV\u9ea4
I4364
sV\u60b0
I4711
sV\u66b4
I3180
sV\u563f
I5092
sV\u4ec4
I4986
sV\u81c6
I620
sV\u87ca
I2683
sV\u7b4d
I2757
sV\u5acc
I244
sV\u7151
I4555
sV\u69d6
I6717
sV\u865f
I1065
sV\u5961
I6974
sV\u9c63
I4753
sV\u5f65
I1993
sV\u71e6
I5089
sV\u6e6f
I2273
sV\u6473
I7049
sV\u9cf8
I5591
sV\u92fc
I6888
sV\u55fe
I4946
sV\u8881
I4075
sV\u6900
I3981
sV\u8e85
I2909
sV\u9091
I1443
sV\u5593
I6885
sV\u9695
I3254
sV\u8816
I1878
sV\u6c99
I309
sV\u629d
I5670
sV\u78a1
I5068
sV\u74a9
I6025
sV\u962a
I5217
sV\u8faf
I2569
sV\u6232
I2039
sV\u91bb
I4979
sV\u97bf
I6450
sV\u8f44
I1917
sV\u8548
I6298
sV\u79cb
I91
sV\u5c4e
I3965
sV\u8cd9
I5310
sV\u98e1
I4779
sV\u7960
I2634
sV\u9ee5
I4913
sV\u7f64
I7080
sV\u60f1
I3616
sV\u8272
I460
sV\u5d78
I6407
sV\u72fd
I5324
sV\u537c
I6114
sV\u947e
I3264
sV\u8307
I6454
sV\u7292
I3566
sV\u611b
I441
sV\u671f
I861
sV\u7327
I5837
sV\u95a8
I416
sV\u8a2d
I2975
sV\u4f2f
I1670
sV\u7db8
I1524
sV\u513b
I1420
sV\u73bc
I5145
sV\u6841
I5085
sV\u8ac2
I3648
sV\u4fc4
I2316
sV\u7a4d
I1840
sV\u5bcc
I1094
sV\u7051
I512
sV\u92d2
I2147
sV\u7655
I5891
sV\u57d4
I6544
sV\u68d6
I4970
sV\u875f
I6793
sV\u7ae2
I6059
sV\u9367
I6205
sV\u696b
I2724
sV\u76ea
I4726
sV\u6f6f
I2072
sS'<EOP>'
p3
I7367
sV\u5efa
I1682
sV\u777f
I3324
sV\u6a00
I6874
sV\u8d85
I634
sV\u6608
I5409
sV\u780c
I3218
sV\u5c8f
I5761
sV\u7210
I1377
sV\u4e18
I1806
sV\u7ba1
I893
sV\u5c24
I3552
sV\u9326
I173
sV\u8caf
I435
sV\u86b3
I6148
sV\u98b7
I6668
sV\u5fb9
I1949
sV\u7d3a
I2748
sV\u51bd
I1972
sV\u773e
I5833
sV\u8a40
I6189
sV\u60c7
I6103
sV\u7acb
I212
sV\u80b6
I6732
sV\u984c
I1363
sV\u5f4e
I472
sV\u5152
I405
sV\u6e58
I551
sV\u7a60
I4740
sV\u5ee3
I1270
sV\u9de5
I2633
sV\u7c64
I5716
sV\u50e7
I1952
sV\u69ed
I5084
sV\u8172
I3711
sV\u7ff9
I4367
sV\u5e78
I2504
sV\u6982
I1509
sV\u7f8e
I363
sV\u7192
I3532
sV\u6817
I1947
sV\u621b
I4356
sV\u7e23
I1354
sV\u7027
I3858
sV\u53a6
I3222
sV\u96a8
I440
sV\u55aa
I2241
sV\u892d
I3586
sV\u8331
I2402
sV\u9f39
I7211
sV\u523b
I2617
sV\u913d
I1331
sV\u6749
I4052
sV\u8857
I3052
sV\u6bd6
I5811
sV\u4f59
I1614
sV\u825b
I4244
sV\u6dda
I431
sV\u67de
I6495
sV\u5d65
I7254
sV\u6a6b
I51
sV\u4fee
I2755
sV\u84f4
I5093
sV\u5bf6
I718
sV\u4f83
I6440
sV\u8c85
I4960
sV\u6d04
I2177
sV\u6708
I277
sV\u5b8b
I1942
sV\u5793
I1722
sV\u7514
I5986
sV\u8a16
I5742
sV\u609d
I6042
sV\u7ca5
I4368
sV\u5d24
I3202
sV\u5728
I319
sV\u8daf
I6168
sV\u87b3
I5011
sV\u7c3a
I5607
sV\u95bf
I6262
sV\u8b40
I6319
sV\u6fc3
I2772
sV\u61c7
I3506
sV\u7bcb
I2922
sV\u994c
I3699
sV\u6f58
I3141
sV\u80dd
I5339
sV\u615c
I3999
sV\u9ae1
I4884
sV\u7b60
I3281
sV\u9ce5
I501
sV\u96e9
I5407
sV\u7768
I3451
sV\u62f1
I2701
sV\u8072
I279
sV\u70fd
I817
sV\u517c
I2171
sV\u8f03
I4337
sV\u6286
I6480
sV\u5211
I677
sV\u9713
I80
sV\u7092
I7110
sV\u819c
I5382
sV\u97a8
I5946
sV\u882d
I3553
sV\u8435
I5755
sV\u5937
I1232
sV\u7fb8
I2207
sV\u88c2
I1054
sV\u6649
I1408
sV\u84ca
I5754
sV\u9ece
I1757
sV\u7251
I5838
sV\u7455
I4173
sV\u55d4
I3589
sV\u4e59
I3360
sV\u6cda
I2819
sV\u855f
I6868
sV\u5c65
I936
sV\u9167
I6939
sV\u5669
I6911
sV\u83f0
I1513
sV\u6773
I2184
sV\u85f4
I7130
sV\u737b
I1006
sV\u757f
I3308
sV\u8d81
I3978
sV\u9f8d
I403
sV\u9591
I42
sV\u8d16
I4012
sV\u8b1a
I6998
sV\u679d
I427
sV\u5c20
I6376
sV\u5028
I4330
sV\u8cab
I209
sV\u59b9
I5366
sV\u68c3
I3408
sV\u66c7
I6022
sV\u594e
I5250
sV\u4ed7
I915
sV\u7c60
I1659
sV\u7068
I5585
sV\u896e
I7046
sV\u65f1
I2384
sV\u63f5
I6329
sV\u9d76
I3543
sV\u5878
I6619
sV\u8803
I7312
sV\u6f82
I6921
sV\u8607
I630
sV\u6586
I7253
sV\u638a
I5669
sV\u9a0f
I4964
sV\u798e
I3435
sV\u9013
I5685
sV\u5315
I175
sV\u621f
I1053
sV\u7823
I6020
sV\u7627
I5468
sV\u90a8
I4987
sV\u53aa
I6587
sV\u8f2d
I3877
sV\u64b0
I3368
sV\u8335
I1940
sV\u5e37
I2258
sV\u543b
I5768
sV\u973d
I2321
sV\u6d41
I20
sV\u8fc2
I4164
sV\u83ca
I2404
sV\u7f4d
I2742
sV\u5ecc
I6744
sV\u6dd6
I7311
sV\u845b
I687
sV\u6bda
I6859
sV\u825f
I6056
sV\u5d61
I6406
sV\u5b65
I4218
sV\u5169
I241
sV\u73ea
I1813
sV\u82f4
I5027
sV\u5bfa
I2380
sV\u8c81
I7184
sV\u8a85
I2019
sV\u6b04
I2935
sV\u8089
I3082
sV\u6108
I2818
sV\uff0c
I5
sV\u5b8f
I2759
sV\u9295
I5666
sV\u669d
I2343
sV\u8dab
I4943
sV\u4ead
I943
sV\u81b3
I2640
sV\u95bb
I2665
sV\u703e
I2230
sV\u69c3
I3073
sV\u4e42
I5247
sV\u7dcb
I3883
sV\u9354
I6515
sV\u4fd7
I658
sV\u88d9
I3721
sV\u675c
I2371
sV\u7b64
I5643
sV\u7168
I7011
sV\u886e
I2522
sV\u78f9
I5747
sV\u5978
I5207
sV\u577c
I4901
sV\u8707
I7322
sV\u628a
I1307
sV\u788e
I1370
sV\u5411
I254
sV\u8998
I5873
sV\u91a8
I5921
sV\u52aa
I3698
sV\u8431
I2554
sV\u65b0
I194
sV\u5f37
I1352
sV\u9839
I1605
sV\u533f
I618
sV\u6c41
I5424
sV\u7e4d
I6727
sV\u5fcc
I683
sV\u96d2
I5700
sV\u7255
I1224
sV\u53d4
I1786
sV\u8f57
I3821
sV\u6ada
I5374
sV\u5a65
I4876
sV\u74e6
I1126
sV\u6173
I3647
sV\u83f4
I3826
sV\u7f77
I761
sV\u5cf6
I2712
sV\u99f8
I4416
sV\u50fe
I3501
sV\u6e00
I6034
sV\u8389
I5128
sV\u6208
I778
sV\u7c0c
I6692
sV\u7014
I7007
sV\u891a
I5243
sV\u659d
I3383
sV\u7fa1
I4716
sV\u5824
I858
sV\u73a9
I3280
sV\u8eab
I39
sV\u82b3
I659
sV\u6532
I5023
sV\u7f36
I6116
sV\u5bb9
I596
sV\u96bb
I470
sV\u793a
I1480
sV\u733e
I4752
sV\u8e40
I2644
sV\u6ac3
I4421
sV\u64c7
I1428
sV\u9650
I1533
sV\u9054
I982
sV\u6a58
I888
sV\u85dd
I3266
sV\u5ae3
I4935
sV\u7864
I5069
sV\u67f1
I266
sV\u61f5
I2548
sV\u547c
I312
sV\u937e
I2046
sV\u4f01
I4550
sV\u8a03
I6243
sV\u8407
I6689
sV\u618a
I3468
sV\u980f
I5007
sV\u7b8e
I5215
sV\u5115
I5214
sV\u8a98
I3817
sV\u849c
I3762
sV\u5da2
I2167
sV\u4e2b
I6244
sV\u51aa
I690
sV\u60b4
I3006
sV\u7ab8
I5297
sV\u563b
I6497
sV\u6f41
I1725
sV\u4ec0
I4014
sV\u8dc2
I3450
sV\u87c6
I3557
sV\u6349
I3940
sV\u81ca
I6080
sV\u56d0
I7327
sV\u95d2
I6315
sV\u8c57
I4774
sV\u865b
I213
sV\u6e6b
I4815
sV\u686f
I7244
sV\u6273
I6335
sV\u767b
I1035
sV\u8e81
I4609
sV\u6308
I2619
sV\u5f8b
I1922
sV\u5393
I1396
sV\u9095
I5274
sV\u881a
I5929
sV\u649d
I5633
sV\u821e
I217
sV\u5924
I2981
sV\u89af
I5577
sV\u7e36
I3540
sV\u54bd
I3017
sV\u723e
I1159
sV\u8944
I393
sV\u8348
I5975
sV\u808c
I2696
sV\u6b58
I990
sV\u92e9
I3395
sV\u7368
I429
sV\u8a6e
I4128
sV\u7af9
I231
sV\u5b78
I164
sV\u557c
I121
sV\u4e01
I2867
sV\u6c82
I5526
sV\u5c0d
I535
sV\u6d17
I2028
sV\u671b
I268
sV\u859c
I2674
sV\u611f
I296
sV\u6dac
I5284
sV\u67b0
I4834
sV\u5d37
I5280
sV\u7bb8
I4331
sV\u573b
I2475
sV\u75bc
I4595
sV\u8cc2
I4908
sV\u6845
I3922
sV\u86c6
I6153
sV\u6249
I2500
sV\u7c4d
I664
sV\u7055
I5856
sV\u875b
I6210
sV\u68da
I5979
sV\u5e61
I3309
sV\u7ce2
I4843
sV\u5269
I3625
sV\u8dec
I5378
sV\u696f
I5943
sV\u81f4
I2003
sV\u5ef6
I1855
sV\u58fa
I1182
sV\u52fe
I5653
sV\u9181
I1874
sV\u9785
I2684
sV\u9d89
I2528
sV\u620c
I4952
sV\u9116
I6418
sV\u7b9d
I5307
sV\u5a1c
I3607
sV\u9d1e
I2929
sV\u8f2a
I525
sV\u53ad
I2512
sV\u5fb5
I883
sV\u82b7
I4104
sV\u673a
I1552
sV\u6d3e
I2803
sV\u9644
I3590
sV\u7ac7
I2351
sV\u60cb
I5347
sV\u5f4a
I2195
sV\u6cd3
I4280
sV\u8e54
I627
sV\u52d7
I2401
sV\u7a5c
I6591
sV\u5edf
I1990
sV\u81e1
I6099
sV\u6060
I4739
sV\u6664
I3161
sV\u6c68
I1779
sV\u73ed
I2598
sV\u5e74
I163
sV\u5101
I6081
sV\u9403
I927
sV\u800b
I6441
sV\u7f8a
I1655
sV\u7e1f
I5996
sV\u86a4
I2580
sV\u8ca8
I5174
sV\u502b
I2138
sV\u72ac
I1487
sV\u562f
I1437
sV\u9931
I5318
sV\u634d
I2627
sV\u4ed4
I5840
sV\u9257
I4814
sV\u71d6
I7292
sV\u985b
I2164
sV\u77da
I3115
sV\u5b5d
I2615
sV\u7dde
I5853
sV\u8463
I3836
sV\u8a67
I6347
sV\u706b
I703
sV\u766f
I6915
sV\u7c73
I3681
sV\u8afc
I2540
sV\u9081
I1455
sV\u5583
I3667
sV\u9685
I1144
sV\u7704
I4637
sV\u5b87
I2268
sV\u7d08
I2905
sV\u828d
I4301
sV\u8e95
I1155
sV\u6f14
I2783
sV\u9016
I2940
sV\u91ab
I4142
sV\u8e2a
I5088
sV\u52ad
I7334
sV\u742e
I3525
sV\u5eb5
I5179
sV\u9744
I2838
sV\u7bc7
I1719
sV\u61cb
I6551
sV\u67cf
I1173
sV\u8f54
I4146
sV\u53d7
I1406
sV\u80e1
I3
sV\u6160
I3758
sV\u7ef5
I5157
sV\u5f74
I6517
sV\u8076
I968
sV\u867a
I4926
sV\u7282
I2252
sV\u9b07
I3706
sV\u5c09
I1497
sV\u810b
I6311
sV\u7e8a
I5862
sV\u8d13
I5903
sV\u4e15
I3318
sV\u7317
I2931
sV\u5096
I7335
sV\u569a
I6291
sV\u81a0
I4355
sV\u6523
I3915
sV\u8da8
I2934
sV\u572f
I2843
sV\u79b0
I2078
sV\u65b8
I4993
sV\u6bbc
I3763
sV\u98c6
I789
sV\u7c49
I6373
sV\u624d
I1013
sV\u6851
I1069
sV\u8ad2
I3273
sV\u9f5f
I3795
sV\u7cde
I4586
sV\u8563
I5655
sV\u54ee
I5187
sV\u99f0
I7032
sV\u7d73
I4045
sV\u6377
I2229
sV\u9381
I5533
sV\u7200
I6941
sV\u7e08
I672
sV\u63a1
I696
sV\u65a5
I3736
sV\u7932
I6734
sS'\xb7'
I4507
sV\u8cbf
I6266
sV\u6f3e
I1222
sV\u76c3
I63
sV\u9444
I3358
sV\u62cb
I3646
sV\u5d4a
I4192
sV\u8a50
I3348
sV\u6ed3
I3146
sV\u8c54
I906
sV\u7658
I3831
sV\u99dd
I1346
sV\u83e1
I1297
sV\u85e5
I329
sV\u71ed
I985
sV\u976e
I7158
sV\u7df5
I6589
sV\u5c74
I6451
sV\u67f9
I7264
sV\u857a
I6299
sV\u69fd
I3475
sV\u5505
I5404
sV\u7b86
I6905
sV\u820b
I7362
sV\u840f
I1298
sV\u9698
I1300
sV\u559a
I257
sV\u7c1f
I2978
sV\u5f9e
I188
sV\u6827
I6803
sV\u8ea8
I6434
sV\u912d
I1562
sV\u70ac
I2718
sV\u9b31
I1593
sV\u7ab0
I6674
sV\u5e33
I2044
sV\u68bc
I6713
sV\u5ec8
I3096
sV\u614d
I4895
sV\u89d2
I1043
sV\u9a5b
I1303
sV\u9c5f
I5985
sV\u4f69
I1784
sV\u6dea
I349
sV\u746f
I1678
sV\u7e73
I4855
sV\u9cf4
I413
sV\u86f8
I1545
sV\u88fc
I7365
sV\u4ffe
I3391
sV\u3002
I11
sV\u7504
I5074
sV\uff08
I6541
sS'\x8d'
I4511
sV\u8a91
I3970
sV\u7699
I3011
sV\u5718
I326
sV\u591c
I338
sV\u9e1e
I1284
sV\u64a5
I2811
sV\u50ad
I4450
sV\u6236
I140
sV\u643a
I6529
sV\u6e3e
I3485
sV\u5a46
I3652
sV\u5c4a
I6838
sV\u65cf
I1105
sV\u96d9
I291
sV\u795c
I4812
sV\u82e1
I3496
sV\u6f68
I1534
sV\u516c
I169
sV\u5b70
I1911
sV\u7cf5
I3380
sV\u66f9
I736
sV\u847a
I4033
sV\u5201
I3469
sV\u9703
I6039
sV\u7a86
I5743
sV\u668e
I1198
sV\u8f13
I5651
sV\u5296
I6193
sV\u9798
I4684
sV\u7b1b
I768
sV\u83a0
I5375
sV\u6723
I4089
sV\u85a4
I4478
sV\u8fa8
I1537
sV\u902d
I5078
sV\u71ac
I1860
sV\u552f
I2189
sV\u7db4
I1539
sV\u67b8
I3765
sV\u69bc
I4222
sV\u7241
I6095
sV\u55c4
I7008
sV\u9ac6
I6635
sV\u604d
I1962
sV\u6a51
I6431
sV\u88d2
I4137
sV\u6c55
I7297
sV\u9157
I6129
sV\u72d6
I4051
sV\u74da
I3527
sV\u8763
I5993
sV\u736b
I5659
sV\u6cea
I4659
sV\u756f
I3192
sV\u7f73
I5197
sV\u9df4
I1384
sV\u6177
I1557
sV\u6b7b
I101
sV\u5e87
I3270
sV\u878d
I1221
sV\u660c
I1496
sV\u6c10
I3579
sV\u6a14
I7238
sV\u7199
I2567
sV\u5018
I2661
sV\u931a
I5936
sV\u7f9d
I4930
sV\u991e
I2499
sV\u65a1
I5414
sV\u63a5
I714
sV\u712e
I5410
sV\u5db1
I5293
sV\u5bb5
I774
sV\u6536
I453
sV\u8cbb
I694
sV\u633a
I2538
sV\u8abf
I1140
sV\u693e
I7088
sV\u5742
I1074
sV\u62cf
I3554
sV\u8c50
I195
sV\u8a54
I668
sV\u56d7
I6007
sV\u7058
I1504
sV\u77ed
I1083
sV\u566c
I1171
sV\u7df1
I3518
sV\u5501
I7171
sV\u9003
I733
sV\u5305
I1136
sV\u9e07
I3080
sV\u7d86
I5139
sV\u840b
I3003
sV\u7b8a
I5209
sV\u618e
I3621
sV\u8813
I6125
sV\u6f92
I4902
sV\u539a
I3060
sV\u7a1f
I2872
sV\u88a8
I6464
sV\u542b
I1315
sV\u8139
I4593
sV\u60b8
I6791
sV\u6ebc
I3294
sV\u54c0
I281
sV\u97c2
I5778
sV\u7345
I3861
sV\u7949
I3467
sV\u58c8
I5206
sV\u6b55
I5982
sV\u5f5d
I2242
sV\u9a5f
I2430
sV\u67e2
I6113
sV\u6de6
I6372
sV\u9af4
I1921
sV\u6677
I3249
sV\u80f8
I1703
sV\u8efc
I6426
sV\u9481
I6366
sV\u9285
I848
sV\u5f87
I3994
sV\u868d
I5732
sV\u8a95
I1984
sV\u6b14
I6661
sV\u7099
I53
sV\u5118
I5687
sV\u921a
I5415
sV\u8622
I5553
sV\u68a9
I5694
sV\u95ab
I3400
sV\u8a2a
I1577
sV\u56ad
I6501
sV\u5cb1
I1459
sV\u99b3
I156
sV\u7e32
I4660
sV\u5ab5
I6758
sV\u6436
I2966
sV\u623a
I5489
sV\u71c3
I4054
sV\u5c46
I3658
sV\u65cb
I1723
sV\u874c
I6799
sV\u63cf
I6632
sV\u9edd
I6060
sV\u5bdf
I2998
sV\u82e5
I474
sV\u88e9
I3677
sV\u6968
I4790
sV\u906e
I954
sV\u5d70
I7151
sV\u8476
I4226
sV\u60f9
I4255
sV\u887e
I1201
sV\u5401
I1751
sV\u7682
I4294
sV\u5205
I5850
sV\u9f07
I1594
sV\u7a8a
I7197
sV\u8913
I4863
sV\u7d1b
I1569
sV\u529a
I5021
sV\u9f9c
I2356
sV\u589e
I2211
sV\u552b
I6807
sV\u77ac
I2963
sV\u532f
I5824
sV\u7db0
I5205
sV\u7bb4
I5175
sV\u61b8
I6158
sV\u7441
I3172
sV\u7849
I5371
sV\u80ce
I3456
sV\u8ed2
I712
sV\u756b
I585
sV\u6aea
I1676
sV\u736f
I5991
sV\u50ee
I3944
sV\u9df0
I4648
sV\u6777
I7277
sV\u6d7b
I5968
sV\u6b7f
I2816
sV\u7600
I4312
sV\u5283
I4219
sV\u9185
I4268
sV\u858d
I7299
sV\u9716
I1528
sV\u8f26
I870
sV\u892a
I7026
sV\u90af
I86
sV\u7d32
I1698
sV\u6736
I6626
sV\u88bf
I6097
sV\u6b3e
I3432
sV\u9640
I3754
sV\u72c3
I7350
sV\u9044
I6849
sV\u7cc7
I6108
sV\u8e50
I4940
sV\u6ad3
I3624
sV\u7258
I3135
sV\u5edb
I5878
sV\u7c5c
I2758
sV\u58df
I4714
sV\u81e5
I813
sV\u6064
I1695
sV\u936e
I6228
sV\u7ff1
I1802
sV\u5e70
I4468
sV\u9d72
I2094
sV\u8776
I290
sV\u8b7e
I5557
sV\u7f86
I3528
sV\u5b09
I5505
sV\u860b
I1281
sV\u798a
I4824
sV\u4f11
I611
sV\u8a13
I3322
sV\u9298
I1732
sV\u7e1b
I4370
sS'\xa4'
I4530
sV\u8aa8
I5525
sV\u8339
I4317
sV\u4e3b
I670
sV\u6cbc
I2616
sV\u56c0
I3064
sV\u7145
I6999
sV\u7b49
I3755
sV\u99ca
I5393
sV\u654d
I3303
sV\u6f51
I4469
sV\u8263
I2337
sV\u65e2
I2649
sV\u53ee
I3730
sV\u9ef0
I6671
sV\u5df2
I339
sV\u98f4
I4350
sV\u8cfc
I5916
sV\u9085
I2186
sV\u5d87
I2603
sV\u7b08
I4047
sV\u8e91
I2908
sV\u901a
I361
sV\u9a1e
I7201
sV\u66a1
I3688
sS'\xb1'
I4522
sV\u8e26
I6144
sV\u91af
I2441
sV\u6636
I7153
sV\u89bf
I4107
sV\u6a3e
I4145
sV\u5442
I4764
sV\u7dc7
I1937
sV\u9b48
I4440
sV\u584a
I2139
sV\u6bd3
I6166
sV\u7d5c
I3439
sV\u6760
I6577
sS'\xe5'
I4520
sV\u6164
I6997
sV\u5f70
I3333
sV\u78f5
I5164
sV\u5974
I731
sV\u5005
I6520
sV\u9d07
I5368
sV\u7e86
I7185
sV\u5a09
I3587
sV\u870b
I6637
sV\u4e11
I6652
sV\u6c92
I214
sV\u9398
I6860
sV\u509a
I6872
sV\u5a9e
I7249
sV\u6d27
I4300
sV\u4ea6
I684
sV\u8239
I1180
sV\u6dbc
I1293
sV\u51c4
I4818
sV\u7a49
I4973
sV\u8cd2
I967
sV\u6855
I7235
sV\u64e2
I5161
sV\u8d67
I1378
sV\u776b
I1964
sV\u6577
I1142
sV\u83f8
I4324
sV\u8dfc
I3074
sV\u5287
I189
sV\u9589
I1957
sV\u6614
I342
sV\u9916
I6982
sV\u521c
I7070
sV\u6fa5
I4666
sV\u9eaf
I3379
sV\u51b1
I7118
sV\u8ab7
I7339
sV\u6936
I414
sS'\xbb'
I4548
sV\u653e
I963
sV\u5146
I2465
sV\u68cb
I4835
sV\u574a
I4141
sV\u8654
I3459
sV\u5ad7
I5333
sV\u9dd9
I2853
sV\u8fe5
I992
sV\u85e9
I2188
sV\u5a6c
I3701
sV\u9d6e
I6198
sV\u5674
I2735
sV\u6df9
I1974
sV\u9207
I5890
sV\u8e0f
I644
sV\u6d8e
I4461
sV\u6392
I1643
sV\u7a17
I5432
sV\u5996
I827
sV\u701b
I662
sV\u929c
I779
sV\u88a0
I7147
sV\u6c23
I78
sV\u84a8
I4157
sV\u9b2d
I6881
sV\u9131
I2614
sV\u70b0
I2879
sV\u5433
I6
sV\u76b4
I4058
sV\u6cb8
I2739
sV\u62bc
I5777
sV\u7941
I5364
sV\u7f45
I4278
sV\u5ec4
I595
sV\u91c6
I6992
sV\u8dce
I1325
sV\u6755
I6280
sV\u9a57
I3345
sV\u79d6
I4988
sV\u905b
I3955
sV\u965f
I2123
sV\u61e6
I2238
sV\u786b
I6757
sV\u9aec
I5947
sV\u5dee
I2192
sV\u53f2
I2190
sV\u8cf8
I4229
sV\u8a8d
I3622
sV\u4f8f
I3823
sS'\x91'
I4503
sV\u6110
I4154
sV\u6714
I496
sV\u9e1a
I2079
sV\u68a1
I5200
sV\u6ea5
I5852
sV\u8026
I2894
sV\u64a9
I4144
sV\u5aad
I6708
sV\u7c2e
I4670
sV\u7232
I70
sV\u81bb
I4568
sV\u6e3a
I2624
sV\u87bf
I1146
sV\u69cb
I2315
sV\u8b4c
I5528
sV\u8150
I4849
sV\u65d3
I4976
sV\u57df
I599
sV\u88e1
I1380
sV\u6960
I1366
sV\u6f64
I2695
sV\u7aed
I2495
sV\u62fd
I3772
sV\u5409
I3007
sV\u8513
I691
sV\u6292
I6502
sV\u5896
I2378
sV\u9d98
I6220
sV\u5e9a
I4160
sV\u771f
I1330
sV\u85a8
I4425
sV\u592b
I180
sV\u9a2d
I6320
sV\u7bac
I4269
sV\u5533
I2161
sV\u6db8
I1128
sV\u7e45
I5656
sV\u7449
I5681
sV\u55c8
I6337
sV\u96ca
I5998
sV\u82d2
I4950
sV\u525d
I4006
sV\u7f6f
I6215
sV\u6b77
I1457
sV\u83fc
I5019
sV\u677f
I2846
sV\u7a00
I1347
sV\u6210
I222
sV\u6414
I1781
sV\u9b16
I7300
sV\u5e18
I6688
sV\u501c
I2041
sV\u971e
I952
sV\u96b3
I3516
sV\u88b7
I6695
sV\u4fb9
I6969
sV\u82bb
I4415
sV\u6d3a
I5695
sV\u84bf
I743
sV\u9a40
I3679
sV\u884c
I31
sV\u4f4e
I252
sV\u52db
I5119
sV\u91dd
I1306
sV\u4ee3
I1252
sV\u6668
I1388
sV\u79ed
I6786
sV\u9172
I3042
sV\u5474
I5037
sV\u61fd
I2361
sV\u7386
I7100
sV\u5709
I6445
sV\u758a
I1987
sV\u6f8e
I6962
sV\u721b
I939
sV\u579e
I6401
sV\u8aa0
I639
sV\u6027
I2163
sV\u86a8
I3815
sV\u813d
I7268
sV\u60bc
I5238
sV\u7b41
I6578
sV\u95ca
I1838
sV\u8fce
I306
sV\u6555
I2896
sV\u9857
I3046
sV\u5f59
I3420
sV\u925b
I2088
sV\u7dda
I3026
sV\u7a6b
I6029
sV\u7c6f
I6613
sV\u6877
I7024
sV\u8ef8
I3942
sV\u80fc
I5877
sV\u5f83
I2789
sV\u7d04
I3173
sV\u7708
I5138
sV\u888d
I171
sV\u690c
I7096
sV\u6310
I7083
sV\u9a16
I3094
sV\u5f18
I3114
sV\u511c
I4674
sV\u8822
I3926
sV\u9bab
I4645
sV\u9daf
I912
sV\u7e2e
I3956
sV\u97b3
I5269
sV\u7032
I4380
sV\u89b7
I6295
sV\u4eb9
I1955
sV\u85bf
I6948
sV\u9d44
I6533
sV\u9748
I2581
sV\u6bcb
I1211
sV\u544a
I1862
sV\u4e4e
I2220
sV\u67d3
I1714
sV\u7f58
I3236
sV\u53db
I2967
sV\u55df
I816
sV\u8ae1
I5865
sV\u6b60
I4460
sV\u6d64
I5726
sV\u86e9
I3068
sV\u5370
I2438
sV\u9072
I282
sV\u8a76
I6068
sV\u6ef9
I1129
sV\u8c7a
I2112
sV\u5a01
I597
sV\u9f03
I4961
sV\u5c05
I4771
sV\u5609
I1492
sV\u748a
I6581
sV\u8d0f
I4252
sV\u8713
I4693
sV\u6092
I2652
sV\u731b
I1034
sV\u919c
I1318
sV\u751f
I81
sV\u6f23
I4354
sV\u6127
I1641
sV\u982d
I253
sV\u79ac
I7342
sV\u9435
I1127
sV\u75b4
I3125
sV\u803d
I2108
sV\u5bc0
I6486
sV\u98c2
I5779
sV\u9957
I5452
sV\u5e59
I5016
sV\u935b
I5503
sV\u76de
I4379
sV\u64ea
I6171
sV\u6977
I4822
sV\u8ff8
I4078
sV\u637b
I4636
sV\u81fc
I3035
sV\u7c00
I4871
sV\u5883
I1650
sV\u5687
I1858
sV\u9189
I192
sV\u8591
I4588
sV\u6214
I6263
sV\u5818
I6074
sV\u9b1a
I1576
sS'\x87'
I4519
sV\u8526
I4629
sV\u61a9
I1721
sV\u5fad
I3137
sV\u9aaf
I1632
sV\u792e
I6579
sV\u90b3
I2841
sV\u6d36
I2770
sV\u84bb
I7331
sV\u6b3a
I1251
sV\u82bf
I6809
sV\u9a44
I1585
sV\u5546
I1176
sV\u534a
I909
sV\u8e4c
I3542
sS'\xb8'
I4510
sV\u99d9
I6036
sV\u97dd
I1699
sV\u52df
I3592
sV\u8de1
I283
sV\u6c60
I398
sV\u6a64
I3209
sV\u6068
I754
sV\u5e6c
I5004
sV\u75f1
I7328
sV\u5470
I6711
sV\u9803
I4032
sV\u7586
I2488
sV\u5109
I3071
sV\u4f0d
I3055
sV\u8a0f
I5624
sV\u6792
I6122
sV\u7e17
I6946
sV\u741b
I6037
sV\u5b9a
I1119
sV\u969c
I1238
sV\u721f
I7209
sV\u519e
I6806
sV\u8ca0
I825
sV\u8aa4
I1218
sV\u6627
I2647
sV\u5c2b
I4575
sV\u74b0
I1287
sV\u72b4
I6957
sV\u7d41
I6256
sV\u7149
I4817
sV\u6551
I82
sV\u87d2
I4103
sV\u6355
I3661
sV\u7bda
I5295
sV\u925f
I4909
sV\u8863
I35
sV\u8667
I3206
sV\u65e6
I3091
sV\u9eec
I6194
sV\u59ee
I2933
sV\u88f8
I6351
sV\u647b
I2476
sV\u627f
I988
sV\u7d00
I2129
sV\u5983
I2921
sV\u7b04
I5859
sV\u8e8d
I641
sV\u7899
I6645
sV\u571c
I5847
sV\u901e
I3715
sV\u822a
I3244
sV\u5ead
I654
sV\u6a3a
I4207
sV\u5e42
I6756
sV\u9b44
I1728
sV\u77c7
I6436
sV\u9148
I6865
sV\u6dcb
I3936
sV\u524a
I3044
sV\u6bcf
I869
sV\u8354
I4236
sV\u5fd7
I1610
sV\u98d9
I6725
sV\u55db
I7343
sV\u96dd
I5249
sV\u53df
I1267
sV\u8ce1
I6085
sV\u6b64
I183
sS'\xe9'
I4518
sV\u6168
I1558
sV\u5f6c
I6384
sV\u9672
I2997
sV\u72f5
I7336
sV\u5374
I446
sV\u68f9
I3158
sV\u807e
I4399
sV\u5c01
I3014
sV\u7e82
I3261
sV\u9707
I89
sV\u7486
I6357
sV\u5009
I2610
sV\u8d0b
I7293
sV\u4e0d
I29
sV\u8b0f
I6076
sV\u9998
I4846
sV\u5a9a
I2936
sV\u8da0
I7274
sV\u4ea2
I4155
sV\u6727
I3657
sV\u81a8
I3897
sV\u5133
I4724
sV\u8839
I1892
sV\u69b8
I6323
sV\u5bc4
I701
sV\u51c8
I4641
sV\u6e4d
I1773
sV\u9f57
I5723
sV\u7ada
I4808
sV\u62ea
I6628
sV\u7b6f
I1555
sV\u89f8
I278
sV\u657b
I4126
sV\u4e8b
I32
sV\u8d8d
I6509
sV\u7b99
I6078
sV\u5a18
I3971
sV\u991a
I3974
sV\u6fa1
I3984
sV\u69a5
I7052
sV\u8726
I6642
sV\u63a9
I1067
sV\u98af
I17
sV\u7b2e
I5367
sV\u92b3
I3224
sV\u7532
I1333
sV\u8cb7
I191
sS'\xbf'
I4523
sV\u633e
I182
sV\u7ac3
I7112
sV\u5d42
I5286
sV\u6ecb
I1295
sV\u8650
I3323
sV\u62d3
I4877
sV\u56db
I246
sV\u745c
I4102
sV\u89e5
I3098
sV\u83e9
I3775
sV\u5c6c
I2027
sV\u5670
I7229
sV\u5074
I833
sV\u5f01
I5264
sV\u9a03
I3917
sV\u718a
I974
sV\u6592
I5938
sV\u701f
I1778
sV\u6a23
I3631
sV\u88a4
I6580
sV\u82a8
I6572
sV\u5e2b
I1432
sV\u582f
I1653
sV\u76b0
I7310
sV\u5233
I2829
sV\u70b4
I7094
sV\u8b39
I5398
sV\u853d
I2245
sV\u64bc
I5199
sV\u9dc2
I3916
sV\u7945
I3402
sV\u97c6
I4463
sV\u6751
I3019
sV\u6155
I397
sV\u9c57
I1885
sV\u965b
I3092
sV\u8a63
I3159
sV\u7e6b
I1830
sV\u786f
I3020
sV\u5bee
I4272
sV\u96f0
I3549
sV\u90f4
I5490
sV\u4ff6
I5384
sV\u8af8
I1392
sV\u667b
I5152
sV\u84fc
I4283
sV\u9e81
I7124
sV\u5b83
I5684
sV\u4f8b
I3959
sV\u8c8d
I5082
sV\u6d0c
I7034
sV\u8691
I7166
sV\u6710
I5532
sS'\x95'
I4517
sV\u6114
I5635
sV\u921e
I574
sV\u7a2e
I420
sV\u56b1
I6386
sV\u50b5
I2024
sV\u87bb
I1169
sV\u81bf
I4576
sV\u623e
I487
sV\u5646
I5909
sV\u755c
I3885
sV\u6f60
I5804
sV\u6368
I655
sV\u7ced
I5646
sV\u5d6c
I2804
sV\u76f1
I3575
sV\u5770
I3430
sV\u8e76
I1050
sV\u887a
I6261
sV\u827e
I2212
sV\u5e01
I6267
sV\u9b03
I4412
sV\u5805
I2169
sV\u7686
I1011
sV\u708a
I5042
sV\u890f
I2989
sV\u6492
I5578
sV\u7d17
I901
sV\u5e96
I2858
sV\u8fa0
I6845
sV\u6b23
I1890
sV\u89a4
I4583
sV\u83a8
I6879
sV\u9c2d
I6120
sV\u7dac
I544
sV\u77b0
I2346
sV\u5333
I3470
sV\u9035
I2474
sV\u843d
I286
sV\u65bc
I675
sV\u7e41
I1518
sV\u96c6
I1867
sV\u53c8
I315
sV\u90ca
I1433
sV\u6c4d
I6182
sV\u6055
I4099
sV\u78da
I3786
sV\u545d
I6385
sV\u8b63
I3854
sV\u6ce2
I838
sV\u66e6
I2638
sV\u7f6b
I7323
sV\u5aee
I6919
sV\u54f2
I2457
sV\u6d77
I491
sV\u677b
I5389
sV\u617f
I4665
s.