(dp1
V\u8000
I1695
sV\u6785
I4267
sV\u8604
I5755
sV\u6d89
I2615
sV\u4f0a
I1025
sV\u920c
I6791
sV\u550e
I9561
sV\u9810
I170
sV\u8599
I4992
sV\u4e9f
I2110
sV\u6d1e
I2247
sV\u91a1
I4956
sV\u7322
I8384
sV\u5aa7
I4772
sV\u7926
I5713
sV\u9da9
I3027
sV\u6cb3
I368
sV\u9136
I6449
sV\u5438
I3201
sV\u973a
I8427
sV\u5a3c
I8310
sV\u6040
I8908
sV\u8ac7
I1188
sV\u53cd
I1003
sV\u724c
I5179
sV\u59d1
I2276
sV\u7e54
I921
sV\u9060
I166
sV\u77e5
I307
sV\u9664
I808
sV\u7de9
I3965
sV\u9c68
I6075
sV\u5f6a
I5113
sV\u89f1
I6855
sV\u6b72
I113
sV\u52f7
I7754
sV\u58fb
I3422
sV\u777a
I8269
sV\u9bfd
I235
sV\u5eff
I6338
sV\u8382
I5750
sV\u8986
I1626
sV\u700b
I3934
sV\u528c
I7353
sV\u760f
I7605
sV\u958e
I5084
sV\u5890
I5063
sV\u9b92
I4367
sV\u6498
I9062
sV\u881b
I7960
sV\u6a9c
I1307
sV\u8e1f
I3307
sV\u5121
I7900
sV\u76a4
I4647
sV\u9a27
I5510
sV\u5d29
I3437
sV\u82ac
I2904
sV\u51b6
I4095
sV\u9abc
I6862
sV\u6fca
I6132
sV\u564f
I8864
sV\u75ce
I7811
sV\u9951
I129
sV\u9f55
I5585
sV\u6e5f
I5323
sV\u7463
I3597
sV\u56e4
I8495
sV\u7a67
I6455
sV\u5ce8
I3476
sV\u806b
I3907
sV\u62ec
I4769
sV\u866f
I4157
sV\u68f0
I7137
sV\u8c73
I4790
sV\u4f75
I5321
sV\u6ef4
I2832
sV\u5b7d
I2747
sV\u9e7f
I355
sV\u6081
I2624
sV\u6c89
I1748
sV\u8d08
I2419
sV\u4e0a
I337
sV\u728d
I5629
sV\u540e
I961
sV\u7891
I1014
sV\u9910
I707
sV\u7e95
I7512
sV\u9f14
I3771
sV\u6016
I5669
sV\u8499
I1205
sV\u90a1
I8947
sV\u55a3
I5253
sV\u7222
I8312
sV\u7826
I8667
sV\u61ab
I3568
sV\u67af
I206
sV\u4f34
I467
sV\u73b7
I2903
sV\u9036
I2549
sV\u963a
I8907
sV\u7fbf
I2202
sV\u91cb
I1955
sV\u52cd
I4472
sV\u58d1
I1553
sV\u7950
I4782
sV\u9dd3
I4193
sV\u5ed5
I6643
sV\u7f54
I2437
sV\u8558
I6488
sV\u6add
I5908
sV\u8b5c
I3912
sV\u76e5
I697
sV\u5e6a
I6443
sV\u7076
I8055
sV\u59fb
I3788
sV\u9afd
I6858
sV\u5fff
I4940
sV\u6503
I9525
sV\u8e8a
I3010
sV\u7d13
I3458
sV\u8317
I2365
sV\u8f1f
I4198
sV\u5021
I4585
sV\u71a0
I5400
sV\u9b27
I5105
sV\u83ac
I9352
sV\u6831
I6486
sV\u8fb4
I5912
sV\u7439
I9271
sV\u7a3d
I1689
sV\u62c2
I2583
sV\u8c49
I6398
sV\u514b
I1589
sV\u574f
I5772
sV\u9851
I8808
sV\u5d53
I6567
sV\u80d6
I5006
sV\u695b
I5958
sV\u86da
I8216
sV\u6f5f
I8509
sV\u8cde
I1931
sV\u51e0
I1206
sV\u57e4
I6160
sV\u7b67
I5982
sV\u98e6
I8070
sV\u5de8
I2140
sV\u816b
I4600
sV\u63ec
I7933
sV\u8d73
I7527
sV\u6381
I8461
sV\u8200
I8664
sV\u8404
I2457
sV\u8e08
I4577
sV\u900c
I7858
sV\u570e
I9041
sV\u7b91
I5690
sV\u9a10
I1558
sV\u6316
I8821
sV\u93a1
I8756
sV\u95a5
I3795
sV\u7b26
I1058
sV\u62ab
I704
sV\u7d2a
I7931
sV\u872e
I5125
sV\u6eb3
I8618
sV\u8932
I6582
sV\u70b7
I1669
sV\u7abb
I5383
sV\u9f3e
I5591
sV\u6240
I622
sV\u4fc9
I9055
sV\u92cb
I3196
sV\u51cd
I348
sV\u704c
I61
sV\u5bd1
I9693
sV\u9ed3
I9227
sV\u7c54
I9118
sV\u67d9
I7352
sV\u4f5e
I3147
sV\u5162
I3529
sV\u7fe9
I1537
sV\u81ed
I1322
sV\u676e
I7751
sV\u4ef3
I7341
sV\u5afb
I5748
sV\u5cff
I7500
sV\u7f7e
I4853
sV\u6603
I2906
sV\u8182
I6583
sV\u4e88
I1965
sV\u720b
I9331
sV\u8d8a
I1479
sV\u508c
I9106
sV\u5c94
I7435
sV\u8017
I3219
sV\u6698
I4406
sV\u8a1b
I3793
sV\u689c
I8364
sV\u5321
I2018
sV\u72a0
I6361
sV\u5f29
I5017
sS'\xac'
I8018
sV\u8ab0
I543
sV\u6d35
I7112
sV\u8cb4
I1104
sV\u7739
I6459
sV\u96b8
I3553
sV\u793d
I7783
sV\u98bc
I2638
sV\u6bc6
I7458
sV\u8f49
I542
sV\u524b
I8809
sV\u6dca
I9644
sV\u914d
I2336
sV\u9b51
I4262
sV\u79d2
I8515
sV\u83d6
I4753
sV\u6a5b
I5651
sV\u6c5f
I250
sV\u52e0
I7968
sV\u54e4
I6695
sV\u5ee8
I4954
sV\u826b
I2055
sV\u60ec
I5444
sV\u846f
I7887
sV\u8e73
I7154
sV\u9077
I2581
sV\u76f8
I14
sV\u597d
I1727
sV\u8300
I3495
sV\u6485
I9474
sV\u6e89
I4284
sV\u8f08
I3879
sV\u560e
I7641
sV\u7a91
I8644
sV\u9b10
I6217
sV\u7c95
I2934
sV\u6216
I549
sV\u889d
I5409
sV\u57a3
I3509
sV\u9ea9
I4031
sV\u63ab
I8858
sV\u7c2a
I1102
sV\u65af
I1143
sV\u6fb3
I6485
sV\u8832
I5259
sV\u943a
I4159
sV\u7dbf
I3648
sV\u50cd
I9530
sV\u714c
I2673
sV\u7b50
I5630
sV\u66d9
I5121
sV\u8758
I6872
sV\u895c
I5215
sV\u4e5e
I3114
sV\u72e1
I4681
sV\u9360
I4862
sV\u5a66
I661
sV\u80ed
I7925
sV\u666e
I4572
sV\u8af1
I4172
sV\u4ff3
I6035
sV\u6872
I7044
sV\u8cf5
I8666
sV\u96f9
I5357
sV\u5bfb
I8828
sV\u98fd
I245
sV\u7e7e
I2360
sV\u6703
I1061
sS'\x82'
I8008
sV\u4f88
I3991
sV\u730b
I8131
sV\u8c8a
I4586
sV\u518c
I7563
sV\u968e
I690
sV\u5d94
I2008
sV\u8117
I5843
sV\u6798
I5560
sV\u8b1b
I3952
sV\u699c
I4189
sV\u73a0
I5364
sV\u9723
I5956
sV\u9927
I7304
sV\u7fa8
I4542
sV\u5ebe
I3743
sV\u8445
I2207
sV\u8e49
I3516
sV\u6cca
I608
sV\u904d
I3375
sV\u554f
I33
sV\u76ce
I2567
sV\u9a51
I8588
sV\u82d6
I3287
sV\u6b5b
I4827
sV\u53e0
I2671
sV\u7763
I3552
sV\u90e2
I4097
sV\u55e4
I2661
sV\u7967
I7942
sV\u9ae6
I3388
sV\u6bf0
I7010
sV\u9177
I1437
sV\u5679
I8640
sV\u77f8
I9416
sV\u6581
I6327
sV\u8204
I5494
sV\u8808
I6576
sV\u778d
I7383
sV\u9c10
I5921
sV\u5f12
I5255
sV\u7b95
I2047
sV\u6516
I3071
sV\u95a1
I5114
sV\u7722
I6815
sV\u5ea7
I987
sV\u64ab
I1153
sV\u7b2a
I7882
sV\u68b3
I1457
sV\u76b7
I1869
sV\u7cbb
I7961
sV\u7abf
I5798
sV\u993e
I6942
sV\u80c3
I4750
sV\u6244
I3580
sV\u6848
I2701
sV\u92cf
I3030
sV\u5dd1
I4389
sV\u7c50
I5386
sV\u5bd5
I3596
sV\u8058
I2144
sV\u8e5c
I7134
sV\u75e1
I4555
sV\u9460
I4950
sV\u73e5
I5427
sV\u9264
I4844
sV\u5d66
I8394
sV\u79e9
I2740
sV\u87ed
I9122
sV\u616e
I551
sV\u8df1
I8919
sV\u56f7
I3536
sV\u7576
I1029
sV\u5cfb
I1969
sV\u737a
I6371
sV\u5aff
I9638
sV\u8782
I7633
sV\u6e07
I1912
sV\u8b8a
I792
sV\u568c
I6476
sV\u918e
I7015
sV\u5c90
I880
sV\u8617
I4987
sV\u6e9c
I2844
sV\u8a1f
I2992
sV\u74a0
I3809
sV\u9023
I461
sV\u5929
I326
sV\u78a8
I8906
sV\u672d
I3901
sV\u8cb0
I5082
sV\u4fb2
I9252
sV\u6b35
I5202
sV\u90b8
I5198
sV\u7f3d
I5542
sV\u59be
I3004
sV\u67c2
I3198
sV\u8345
I9024
sV\u6dc6
I4507
sV\u524f
I9580
sV\u71ce
I1599
sV\u9d51
I4302
sV\u7fd2
I2366
sV\u6c5b
I6440
sV\u6a5f
I249
sV\u7063
I4190
sV\u52e4
I780
sV\u9de6
I3862
sV\u846b
I6491
sV\u9bea
I5506
sV\u66ec
I2248
sV\u826f
I1095
sV\u6cf0
I3240
sV\u9677
I2224
sV\u5179
I2337
sV\u9c7b
I8294
sV\u6481
I9283
sV\u8500
I5782
sV\u8304
I5873
sV\u9d10
I3320
sV\u7a95
I2385
sV\u6416
I2407
sS'\x99'
I8029
sV\u621a
I4125
sV\u681e
I8827
sV\u7622
I6039
sV\u5fa7
I2053
sV\u7c26
I7291
sV\u65ab
I4124
sV\u77b7
I9521
sV\u9436
I4531
sV\u7dbb
I3496
sV\u5f3c
I6292
sV\u81c3
I5754
sV\u6344
I7151
sV\u95cb
I4261
sV\u7d50
I1921
sV\u99d3
I8443
sV\u5ad5
I7915
sV\u7b54
I2005
sV\u60d9
I7528
sV\u8f5c
I9363
sV\u5662
I2448
sV\u72e5
I3513
sV\u9364
I2654
sV\u5c66
I8742
sV\u78e9
I9621
sV\u5a6a
I4604
sV\u86ed
I4646
sV\u6e72
I4306
sV\u57f7
I1171
sV\u7476
I1749
sV\u9efd
I3783
sV\u8c86
I342
sV\u750b
I8288
sV\u578c
I5423
sV\u7913
I3994
sV\u9e92
I4745
sV\u8d1b
I3636
sV\u8b1f
I8805
sV\u9123
I7824
sV\u5225
I7
sV\u79a8
I8212
sV\u662d
I2438
sV\u87ac
I6785
sV\u6a35
I476
sV\u7039
I4414
sV\u91b8
I5677
sV\u7e3d
I2741
sV\u58be
I4988
sV\u8245
I6482
sV\u4f47
I2970
sV\u6cc6
I9325
sV\u964d
I3206
sV\u5953
I7224
sV\u9a55
I448
sV\u6757
I7735
sV\u4fdc
I3514
sV\u6b5f
I4249
sV\u96e2
I6
sV\u53e4
I83
sV\u7f67
I9139
sV\u9ce6
I8801
sV\u59e8
I7119
sV\u9aea
I1922
sV\u67ec
I4253
sV\u6df0
I3930
sV\u9777
I7573
sV\u9d7b
I9623
sV\u5e7d
I122
sV\u7ffc
I645
sV\u8600
I6668
sV\u8004
I2687
sV\u6b89
I5808
sV\u8a08
I781
sV\u7f91
I7385
sV\u9e10
I9158
sV\u5d12
I5435
sV\u7995
I7626
sV\u9814
I9451
sV\u8399
I9559
sV\u4e9b
I2823
sV\u611a
I438
sV\u6b1e
I4826
sV\u52a3
I4118
sV\u7522
I4689
sV\u91a5
I4768
sV\u5ca7
I3677
sV\u66ab
I1691
sV\u792a
I4799
sV\u4e30
I6242
sV\u6ab3
I3169
sV\u9736
I4906
sV\u5238
I5502
sV\u5c3c
I2512
sV\u6640
I8549
sV\u82c3
I8399
sV\u8cc7
I1573
sV\u6a48
I3684
sV\u96cb
I3569
sV\u7e50
I6124
sV\u9ad3
I4123
sV\u7854
I3670
sV\u8258
I5078
sV\u6ddd
I5720
sV\u8c5c
I5226
sV\u71e5
I5414
sV\u5f66
I2465
sV\u7be9
I4734
sV\u596a
I955
sV\u85ed
I8260
sV\u636e
I5943
sV\u89f5
I9540
sV\u93f9
I9186
sV\u5efb
I3141
sV\u9dfd
I7116
sV\u6203
I7948
sV\u898a
I5117
sV\u548c
I568
sV\u700f
I7309
sV\u9d92
I5473
sV\u6298
I208
sV\u6c9c
I6873
sV\u881f
I913
sV\u76a0
I8880
sV\u70a4
I7272
sV\u7aa8
I6185
sV\u6f31
I4657
sV\u88b4
I3829
sV\u51ba
I3125
sV\u7d3d
I7807
sV\u65c2
I5228
sV\u6fc6
I3489
sV\u8b49
I2217
sV\u69ca
I4744
sV\u504f
I930
sV\u7dd2
I2528
sV\u9955
I2866
sV\u6e5b
I2901
sV\u81da
I4595
sV\u56e0
I969
sV\u7263
I4642
sV\u95e2
I2951
sV\u50e4
I9494
sV\u7c67
I5897
sV\u866b
I9078
sV\u99ea
I7008
sV\u64ec
I1510
sV\u806f
I1536
sV\u8a73
I2219
sV\u9477
I5273
sV\u5379
I6566
sV\u72f8
I3599
sV\u9e7b
I9182
sV\u5d7d
I7396
sV\u8700
I1277
sV\u6085
I1935
sV\u6a89
I5305
sV\u520e
I7486
sV\u7e91
I9089
sV\u9f10
I3817
sV\u7895
I3445
sV\u9914
I5433
sV\u8299
I2770
sV\u4f9b
I43
sV\u8c9d
I1398
sV\u6a1e
I3453
sV\u7422
I3348
sV\u5da7
I2959
sV\u7e26
I1539
sV\u9aa9
I8352
sV\u61af
I6793
sV\u4f30
I7666
sV\u6bb3
I2103
sV\u75b7
I9581
sV\u903a
I1963
sV\u79bf
I4497
sV\u9a3e
I7665
sV\u6144
I3292
sV\u6b48
I6560
sV\u97cb
I3210
sV\u54cd
I8729
sV\u754c
I1251
sV\u91cf
I1511
sV\u5ed1
I8195
sV\u7f50
I8257
sV\u58d5
I5588
sV\u7954
I6294
sV\u62d9
I139
sV\u8358
I4354
sV\u6cdd
I3380
sV\u76e1
I304
sV\u9760
I6982
sV\u5462
I6112
sV\u9164
I3776
sV\u9b68
I8462
sV\u8ef1
I6017
sV\u6c72
I1202
sV\u88f5
I3435
sV\u55f7
I5329
sV\u92f9
I8794
sV\u5ffb
I4204
sV\u707a
I6215
sV\u59ff
I1477
sV\u7a7e
I1983
sV\u6303
I6738
sV\u8482
I4421
sV\u770b
I176
sV\u888a
I9662
sV\u558c
I8334
sV\u5f90
I2153
sV\u8517
I4611
sV\u6398
I5602
sV\u77a0
I5717
sV\u5025
I5151
sV\u5a29
I3780
sV\u642d
I7481
sV\u8fb0
I821
sV\u56b6
I4864
sV\u7239
I6375
sV\u93b8
I4429
sV\u50ba
I7738
sV\u7c3d
I4418
sV\u9dbc
I7014
sV\u5abe
I8672
sV\u64c2
I8191
sV\u6ec6
I8714
sV\u8a49
I4928
sV\u68ca
I7829
sV\u514f
I8396
sV\u72ce
I5289
sV\u7cd2
I6473
sV\u6557
I4563
sV\u86d6
I6824
sV\u6f5b
I2524
sV\u80da
I5871
sV\u8ade
I8709
sV\u57e0
I9677
sV\u9ee6
I8744
sV\u5be8
I6208
sV\u98ea
I6743
sV\u65ec
I3242
sV\u816f
I7549
sV\u69f4
I7034
sV\u9577
I10
sV\u7dfc
I7750
sV\u5d0e
I2180
sV\u9010
I868
sV\u8d99
I1736
sV\u6f1a
I5279
sV\u839d
I8197
sV\u651e
I9608
sV\u5ca3
I6218
sV\u7126
I2003
sV\u95a9
I2256
sV\u6eaf
I5547
sV\u8332
I2221
sV\u5c38
I2226
sV\u523c
I3765
sV\u76bf
I5222
sV\u6840
I3525
sV\u8cc3
I4365
sV\u6e44
I2733
sV\u98cb
I6686
sV\u7a4c
I5293
sV\u9ecf
I5166
sV\u51d1
I9021
sV\u6dd9
I5442
sV\u4f5a
I2503
sV\u7fe5
I2483
sV\u75e9
I3877
sV\u576a
I7117
sV\u6d6e
I23
sV\u6372
I257
sV\u9df9
I1450
sV\u50fb
I141
sV\u93fd
I9095
sV\u56ff
I4107
sV\u6c03
I7496
sV\u6207
I7285
sV\u8186
I9667
sV\u5a8c
I7898
sV\u9392
I5827
sV\u8a17
I2505
sV\u6c98
I8602
sV\u801b
I8995
sV\u629c
I4071
sV\u9c23
I8875
sV\u74a8
I3415
sS'\xb0'
I8001
sV\u6735
I5342
sV\u86b4
I6164
sV\u7d39
I4485
sV\u92bc
I7798
sV\u8941
I5999
sV\u8f45
I1256
sV\u61c6
I6369
sV\u8549
I4233
sV\u584b
I3316
sV\u9b4d
I5784
sV\u7dce
I7271
sV\u89d6
I6088
sV\u665f
I8557
sV\u85de
I9068
sV\u58e0
I62
sV\u9be2
I5489
sV\u5ee4
I2220
sV\u7267
I473
sV\u91e6
I5086
sV\u54e8
I7325
sV\u886b
I1175
sV\u6aec
I4602
sV\u8e6f
I5621
sV\u60f0
I2514
sV\u8473
I4975
sV\u66f4
I108
sV\u907b
I6479
sV\u72fc
I1670
sV\u967f
I6803
sV\u6881
I231
sV\u9b0c
I7255
sV\u5c0e
I3545
sV\u5212
I8370
sV\u9714
I7339
sV\u6816
I485
sV\u8c99
I8454
sV\u6e1a
I3203
sV\u829d
I2432
sV\u5da3
I7544
sV\u9ea5
I657
sV\u7026
I4220
sV\u8232
I5001
sV\u533c
I7746
sV\u77bf
I1504
sV\u6940
I7656
sV\u6f44
I3542
sV\u6548
I757
sV\u7b4c
I3987
sV\u50d1
I2209
sV\u95d3
I6623
sV\u80e4
I8371
sV\u5a62
I4513
sV\u566a
I3126
sV\u8aed
I4331
sV\u4fef
I2423
sV\u747e
I4091
sV\u4f84
I3077
sV\u6307
I1396
sV\u8086
I2641
sV\u868a
I3236
sV\u5b8c
I1247
sV\u5190
I7438
sV\u7513
I1577
sV\u8b17
I4619
sV\u6d98
I6421
sV\u811b
I1230
sV\u5821
I5094
sV\u79a0
I2727
sV\u9d23
I4194
sV\u5e25
I4621
sV\u7fa4
I1630
sV\u6031
I3482
sV\u81b0
I7548
sV\u6635
I6702
sV\u87b4
I8149
sV\u7c39
I3706
sV\u723d
I1439
sV\u8841
I6978
sV\u6ac2
I3336
sV\u60c6
I2091
sV\u8449
I57
sV\u9a4d
I5562
sV\u9051
I3314
sV\u5553
I2794
sV\u72d2
I9511
sV\u9655
I3651
sV\u6b57
I7488
sV\u675f
I1070
sV\u84de
I8368
sV\u7d63
I8391
sV\u9ae2
I9300
sV\u5fe4
I4128
sV\u7367
I7687
sV\u896b
I7777
sV\u96ea
I261
sV\u6bec
I4374
sV\u61f0
I8179
sV\u8573
I9115
sV\u67f4
I483
sV\u5c79
I2873
sV\u527d
I7025
sV\u6b81
I3294
sV\u8a00
I1394
sV\u6d85
I3180
sV\u6789
I2797
sV\u798d
I1648
sV\u980c
I990
sV\u9210
I4027
sV\u5112
I1975
sV\u9414
I5186
sV\u6b16
I4908
sV\u6d1a
I7202
sV\u819d
I2006
sV\u671e
I3473
sS'\x85'
I8024
sV\u752a
I6290
sV\u5e38
I359
sV\u503c
I2715
sV\u74bf
I4783
sV\u973e
I4538
sV\u8ec3
I8317
sV\u59cd
I4178
sV\u784c
I8581
sV\u7250
I8767
sV\u6fd9
I7188
sV\u7be1
I5254
sV\u5962
I3867
sV\u5366
I5341
sV\u77e9
I2551
sV\u89ed
I8760
sV\u6f6e
I3171
sV\u83f1
I3865
sV\u52fb
I2274
sV\u7d7a
I4052
sV\u54ff
I7695
sV\u8982
I8879
sV\u8386
I4629
sV\u7a0b
I1818
sV\u858a
I5485
sV\u7c0f
I4039
sV\u9f8e
I8952
sV\u9192
I883
sV\u6e98
I5729
sV\u821b
I5890
sV\u841f
I8545
sV\u7aa0
I3478
sV\u7ca4
I7030
sV\u5729
I7629
sV\u4fae
I958
sV\u6331
I6490
sV\u82b0
I666
sS'\x8b'
I7985
sV\u5bb6
I636
sV\u5dba
I90
sV\u8b41
I4167
sV\u4e43
I2049
sV\u63c6
I5774
sV\u8749
I4343
sV\u994d
I8512
sV\u5c4f
I2380
sV\u7fce
I5308
sV\u5653
I4779
sV\u71d2
I526
sV\u4ed8
I833
sV\u625b
I4654
sV\u8dda
I6921
sV\u645f
I8258
sV\u5ae0
I6044
sV\u99e2
I4509
sV\u7067
I4566
sV\u93e6
I7499
sV\u8a6b
I3796
sV\u68ec
I8102
sV\u64f4
I2510
sS'\xa5'
I8025
sV\u5f79
I3840
sV\u927b
I6880
sV\u947f
I2058
sV\u8b00
I1295
sV\u6c85
I5233
sV\u8d04
I3728
sV\u6689
I3319
sV\u8708
I9546
sV\u788d
I7000
sV\u990c
I791
sV\u9310
I4358
sV\u5012
I680
sV\u8e99
I7780
sV\u809d
I2827
sV\u7822
I5023
sV\u96a9
I5104
sV\u6bab
I2886
sV\u742a
I5519
sV\u6daf
I739
sV\u67b3
I5556
sV\u9a36
I4101
sV\u5f38
I9554
sV\u73bb
I3249
sV\u513c
I1315
sV\u75bf
I9127
sV\u6d44
I1111
sV\u6748
I6926
sV\u58cd
I3747
sV\u52d1
I9054
sV\u7350
I7051
sV\u97d3
I1233
sV\u7554
I558
sV\u6ed9
I4221
sV\u8f58
I6760
sV\u60dd
I2639
sV\u5862
I532
sV\u76e9
I7072
sV\u9768
I6709
sV\u546a
I5635
sV\u6e6e
I4152
sV\u82f1
I329
sV\u7a76
I2658
sV\u7c7a
I4032
sV\u90fd
I1514
sV\u55ff
I7852
sV\u767e
I1071
sV\u8882
I2313
sV\u7b0b
I4424
sV\u7d0f
I8162
sV\u5594
I4168
sV\u4e19
I4504
sV\u6f98
I6986
sV\u851f
I7064
sV\u7ba0
I3962
sV\u9127
I1563
sV\u5629
I4415
sV\u682d
I9059
sV\u89ac
I2192
sV\u4eae
I2571
sV\u6231
I8402
sV\u7e39
I2032
sV\u91bc
I6447
sV\u56be
I6780
sV\u8a41
I4177
sV\u4f43
I6004
sV\u8c45
I8992
sV\u62c6
I4112
sV\u64ca
I411
sV\u984d
I4658
sV\u9455
I5816
sV\u6957
I4122
sV\u8ad6
I364
sV\u4fd8
I3605
sV\u8cda
I6642
sV\u5be0
I6839
sV\u7f63
I4738
sV\u7167
I48
sV\u8b6b
I7197
sV\u65f4
I4725
sV\u5e79
I2795
sV\u71fc
I1449
sV\u8008
I6334
sV\u9e0c
I6734
sV\u7591
I1375
sV\u5712
I270
sV\u7395
I2331
sV\u9214
I6983
sV\u611e
I2717
sV\u9da1
I7648
sV\u56a7
I9562
sV\u7526
I6964
sV\u91a9
I9643
sV\u6cab
I3559
sV\u732a
I4240
sV\u9d36
I8246
sV\u9b3a
I8139
sV\u6c40
I842
sV\u6a44
I4907
sV\u86c7
I1914
sV\u6048
I9307
sV\u5fcd
I2178
sV\u9acf
I1639
sV\u55d1
I8117
sV\u8858
I3822
sV\u67dd
I508
sV\u865c
I3426
sV\u7de1
I2957
sV\u9c60
I252
sV\u5f62
I993
sV\u7be5
I9338
sV\u9a64
I2374
sV\u9068
I2633
sV\u8fed
I4929
sV\u696e
I2791
sV\u6772
I3373
sV\u83f5
I7740
sV\u5ef7
I2805
sV\u99f9
I8817
sV\u54fb
I8882
sV\u97fd
I8256
sV\u52ff
I1944
sV\u6607
I2683
sV\u8586
I9408
sV\u7c0b
I3958
sV\u838a
I2859
sV\u5e8c
I7904
sV\u7a0f
I8944
sV\u5490
I6090
sV\u5294
I5141
sV\u821f
I535
sV\u6f2d
I6181
sV\u8eac
I3554
sV\u82b4
I2509
sV\u98b8
I2077
sV\u773d
I8232
sV\u96bc
I1471
sV\u6fc2
I6379
sV\u65c6
I4471
sV\u5c4b
I214
sV\u5053
I6527
sV\u77d2
I4876
sV\u6e57
I7730
sV\u8dd6
I4408
sV\u645b
I2964
sV\u81de
I4817
sV\u50e8
I6627
sV\u8c6b
I3575
sV\u6eec
I7268
sV\u8073
I3615
sV\u62f4
I7490
sV\u76fc
I3187
sV\u6c81
I1777
sV\u8b04
I4547
sV\u6089
I4571
sV\u8108
I1806
sV\u7e8d
I2268
sV\u5612
I5130
sV\u4f97
I5988
sV\u601e
I9141
sV\u59a3
I7055
sV\u7e22
I6089
sV\u7426
I4022
sV\u6dab
I9398
sV\u722a
I2277
sV\u6baf
I5568
sV\u5938
I3072
sV\u75bb
I8570
sV\u73bf
I5668
sV\u903e
I896
sV\u87c7
I2835
sV\u6148
I1800
sV\u7f4c
I5990
sV\u52d5
I100
sV\u68d9
I7833
sV\u8958
I1984
sV\u66dd
I886
sV\u875c
I8300
sV\u9d60
I1721
sV\u5e62
I1970
sV\u7ae5
I1625
sV\u5466
I4593
sV\u9168
I9162
sV\u526a
I1896
sV\u686e
I4205
sV\u84f1
I7579
sV\u6672
I7677
sV\u7a7a
I201
sV\u707e
I7507
sV\u7d0b
I3625
sV\u828a
I2990
sV\u5f8c
I527
sV\u7b0f
I3827
sV\u9692
I9604
sV\u8f17
I4070
sV\u6998
I6381
sV\u679c
I732
sV\u831f
I9032
sV\u7da0
I167
sV\u5a25
I458
sV\u9727
I1802
sV\u5029
I1531
sV\u71a8
I4824
sV\u6e2d
I2300
sV\u85b0
I560
sV\u6235
I2239
sV\u5aba
I6548
sV\u763d
I8196
sV\u50be
I544
sV\u8c41
I3358
sV\u6ec2
I3278
sV\u8a45
I9399
sV\u5d4b
I8030
sV\u62ca
I2708
sV\u5b4f
I6620
sV\u78ce
I6570
sV\u9451
I3231
sV\u6f57
I6180
sV\u8cd6
I2682
sV\u80de
I6821
sV\u5be4
I2880
sV\u8d6b
I2133
sV\u92ea
I1224
sV\u6fec
I2576
sV\u8b6f
I1684
sV\u65f0
I5892
sV\u8173
I1709
sV\u63f4
I3537
sV\u9f77
I3956
sV\u5879
I5307
sV\u79f8
I6575
sV\u567d
I5762
sV\u77fc
I6820
sV\u6f81
I4913
sV\u6985
I7043
sV\u6389
I2463
sV\u8208
I598
sV\u7d8d
I6256
sV\u9c0c
I6772
sV\u7791
I2488
sV\u9014
I1196
sV\u8b99
I3632
sV\u859d
I2411
sV\u7d22
I2052
sV\u99a5
I1064
sV\u7726
I7821
sV\u93a9
I4860
sV\u6eab
I218
sV\u68af
I3538
sS'\x89'
I8013
sV\u62b3
I8773
sV\u993a
I9328
sV\u543c
I2864
sV\u4fc1
I8612
sV\u6844
I6534
sV\u6248
I3462
sV\u5dcd
I2645
sV\u7c4c
I2784
sV\u7054
I3691
sV\u8a58
I6357
sV\u65dd
I6749
sV\u845c
I7639
sV\u7fe1
I5193
sV\u5766
I2078
sV\u73e9
I5753
sV\u6572
I347
sV\u7f76
I8255
sV\u797a
I3127
sV\u50ff
I7416
sV\u737e
I8937
sV\u8d82
I9075
sV\u7e0b
I3500
sV\u818a
I7039
sV\u5c8c
I4188
sV\u9b8e
I6995
sV\u5690
I9434
sV\u7213
I6842
sV\u9592
I85
sV\u5094
I8554
sV\u9a23
I7017
sV\u5925
I6158
sV\u8cac
I2928
sV\u6731
I1468
sV\u86b0
I9193
sV\u80b4
I2947
sV\u9ab8
I1551
sV\u59ba
I9079
sV\u753d
I7098
sV\u6dc2
I8643
sV\u8349
I165
sV\u61ca
I5830
sV\u584f
I4074
sV\u9751
I9273
sV\u75d2
I5998
sV\u9155
I8977
sV\u6c57
I968
sV\u665b
I8174
sV\u89da
I5730
sV\u605f
I9571
sV\u5ee0
I9108
sV\u58e4
I684
sV\u6cec
I2632
sV\u886f
I6617
sV\u66f0
I2495
sV\u60f4
I6446
sV\u9c77
I2923
sV\u967b
I5906
sV\u907f
I916
sV\u8f00
I3797
sV\u6885
I860
sV\u6289
I4132
sV\u8308
I8413
sV\u5412
I4985
sV\u7095
I9072
sV\u9114
I7792
sV\u8a99
I8781
sV\u621e
I7384
sV\u5ba3
I1647
sV\u55a7
I539
sV\u7626
I1667
sV\u7db7
I4858
sV\u77bb
I1243
sV\u983a
I5350
sV\u553c
I7611
sV\u4ec1
I1767
sV\u6f40
I7974
sV\u85c7
I8465
sV\u6348
I9592
sV\u5ccd
I7676
sV\u99cf
I7892
sV\u56d1
I3693
sV\u50d5
I450
sV\u4e56
I3008
sV\u8b58
I1795
sV\u9f60
I6895
sV\u5c62
I2060
sV\u78e5
I6154
sV\u5666
I4911
sV\u72e9
I2116
sV\u506a
I3024
sV\u8ced
I6525
sV\u5df7
I1765
sV\u9af9
I6633
sV\u727e
I7107
sV\u6b03
I7250
sV\u8c82
I1010
sS'\x8a'
I8017
sV\u5194
I8517
sV\u8d17
I4986
sV\u6b98
I285
sV\u659c
I606
sV\u5e21
I6442
sV\u9b23
I4781
sV\u5229
I934
sV\u73a8
I9086
sV\u8dac
I8789
sV\u6631
I6323
sV\u87b0
I6779
sV\u6035
I4523
sV\u81b4
I4508
sV\u5eb6
I997
sV\u7a39
I6580
sV\u58ba
I9224
sV\u95bc
I4209
sV\u52be
I2739
sV\u8e41
I4442
sV\u6cc2
I8169
sV\u66c6
I4785
sV\u9c4d
I7211
sV\u594f
I1632
sV\u9651
I8185
sV\u5353
I2516
sV\u9055
I1430
sV\u615f
I943
sV\u82de
I4295
sV\u5fe0
I998
sV\u59e4
I8105
sV\u7567
I6229
sV\u53e8
I1473
sV\u90ea
I7108
sV\u6dec
I2340
sV\u896f
I5347
sV\u67f0
I4934
sV\u8373
I6107
sV\u61f4
I7330
sV\u9d77
I3849
sV\u7bf8
I4615
sV\u547d
I1011
sV\u75fc
I5000
sV\u7181
I7240
sV\u9000
I1162
sV\u7d89
I6426
sV\u5f0a
I3742
sV\u820c
I1697
sV\u8810
I6516
sV\u8e14
I3932
sV\u9599
I3434
sV\u771a
I6183
sV\u9b9d
I5997
sV\u7d1e
I6087
sV\u81a1
I7522
sV\u70ab
I5087
sV\u6f2a
I1364
sV\u5830
I5353
sV\u7cb3
I4695
sV\u9b32
I5731
sV\u873a
I3764
sV\u9ac7
I4809
sV\u5dc9
I3770
sV\u6850
I1421
sV\u8cd3
I874
sV\u6e54
I2767
sV\u5156
I8250
sV\u75d9
I9362
sV\u7bdd
I3531
sV\u67e5
I3199
sV\u6de9
I5610
sV\u8c68
I7183
sV\u4f6a
I4366
sV\u756e
I7650
sV\u99f1
I5257
sV\u7b72
I5839
sV\u6176
I1086
sV\u85f9
I2854
sV\u4eff
I7157
sV\u5080
I7175
sV\u7403
I2913
sV\u5684
I9264
sV\u7a07
I7418
sV\u5c88
I9085
sV\u660f
I452
sV\u6c13
I3366
sV\u8b92
I2038
sV\u4e94
I502
sV\u7498
I5522
sV\u60a0
I655
sV\u55ae
I3385
sV\u7931
I2538
sV\u9eb4
I3103
sV\u6539
I2884
sV\u84b8
I702
sV\u6b3d
I2339
sV\u8abc
I3853
sV\u73c2
I4502
sV\u7fca
I4025
sV\u834d
I8589
sV\u65ce
I5793
sV\u6bd2
I4106
sV\u8f55
I7850
sV\u7257
I8482
sV\u5adc
I7655
sV\u83e2
I6662
sV\u6a67
I7160
sV\u8fea
I5985
sV\u536d
I6636
sV\u8277
I2444
sV\u7081
I9005
sV\u9100
I6562
sV\u9704
I1823
sV\u5806
I2895
sV\u7c89
I693
sV\u9d08
I3841
sV\u5e0a
I8976
sV\u8910
I1207
sV\u8f14
I1043
sV\u7c1e
I1169
sV\u80a1
I4111
sV\u6222
I2114
sV\u8ca9
I5573
sV\u77af
I9276
sV\u942e
I7124
sV\u7db3
I6296
sV\u8036
I5349
sV\u69bb
I3099
sV\u863a
I5123
sV\u6fbf
I8783
sV\u8c3e
I8846
sV\u95c3
I3856
sV\u56c5
I5752
sV\u9bc7
I8103
sV\u5cc9
I8469
sV\u87cf
I8069
sV\u4ed5
I1821
sV\u6f54
I1476
sV\u7add
I5014
sV\u5c5e
I3961
sV\u60e1
I881
sV\u8160
I7201
sV\u8764
I6271
sV\u92ed
I3265
sV\u746e
I8362
sV\u98f1
I2441
sV\u5df3
I5320
sV\u667a
I439
sV\u6c7e
I4462
sV\u5180
I3132
sV\u7503
I4307
sV\u670f
I7131
sV\u6d13
I9084
sV\u4f94
I2086
sV\u991b
I9156
sV\u7b9c
I7246
sV\u9f1f
I7830
sV\u8523
I4633
sV\u722d
I389
sV\u93ac
I6168
sV\u54ae
I5836
sV\u5ab2
I2098
sV\u7e35
I5446
sV\u85b8
I6973
sV\u6a3d
I153
sV\u9041
I3854
sV\u72c2
I2009
sV\u9c49
I6927
sV\u64ce
I443
sV\u8e55
I2194
sV\u7357
I3369
sV\u795b
I3979
sV\u5bdc
I4126
sV\u7f5f
I4644
sV\u6563
I583
sV\u82e2
I7748
sV\u6b67
I4545
sV\u526d
I9575
sV\u9d73
I9140
sV\u8377
I667
sV\u897b
I6647
sV\u6bfc
I8687
sV\u7381
I8076
sV\u5102
I3152
sV\u618d
I3006
sV\u800c
I1932
sV\u8a10
I6543
sV\u6d95
I1173
sV\u7316
I3368
sV\u5a9b
I6406
sV\u751a
I712
sV\u6d2a
I1513
sV\u502c
I9110
sV\u972e
I7109
sV\u9932
I9403
sV\u60b7
I8202
sV\u8336
I1252
sV\u6abb
I3447
sV\u6cbf
I1493
sV\u8f3e
I5018
sV\u7240
I1637
sV\u55c5
I2422
sV\u7444
I6891
sV\u98c7
I2666
sV\u5fc9
I2846
sV\u604c
I5706
sV\u84cf
I9107
sV\u6a50
I2062
sV\u8ed3
I9655
sV\u6c54
I7917
sV\u77d9
I9234
sV\u9658
I5497
sV\u5f5e
I7503
sV\u63e1
I1941
sV\u65e5
I119
sV\u6fe9
I1339
sV\u91ed
I4320
sV\u5ef3
I5271
sV\u7972
I4568
sV\u6376
I6027
sV\u87f9
I1358
sV\u657a
I6614
sV\u89fd
I8129
sV\u6f7e
I4270
sV\u7603
I4699
sV\u5484
I3938
sV\u9b86
I5410
sV\u9d8a
I7724
sV\u640f
I3600
sV\u9017
I2889
sV\u64a4
I5216
sV\u8827
I5355
sV\u7b31
I6696
sV\u9ab0
I7745
sV\u59b2
I9506
sV\u7d35
I3908
sV\u693d
I2610
sV\u71c2
I9532
sV\u7bc6
I5112
sV\u7dca
I5178
sV\u67ce
I6692
sV\u93d6
I4579
sV\u56d8
I7276
sV\u95da
I2986
sV\u58dc
I9161
sV\u7c5f
I1331
sV\u6663
I7572
sV\u8dea
I4411
sV\u516d
I929
sV\u5b71
I5064
sV\u7cf4
I4989
sV\u8077
I2127
sV\u66f8
I1
sV\u68fc
I3610
sV\u7281
I4543
sV\u7485
I8233
sV\u7e89
I7386
sV\u9f08
I2375
sV\u5c0a
I1388
sV\u608d
I2188
sV\u8b10
I7449
sV\u6c95
I8287
sV\u8d14
I5778
sV\u5197
I1562
sV\u9699
I892
sV\u5b9b
I2469
sV\u741a
I4801
sV\u7e1e
I3486
sV\u82a1
I3866
sV\u8ea9
I7303
sV\u73ab
I7256
sV\u962e
I1432
sV\u5b30
I3330
sV\u9832
I9637
sV\u8236
I5079
sV\u6bbb
I5555
sV\u6dbf
I7442
sV\u52c1
I1817
sV\u97c3
I8802
sV\u5ec9
I1161
sV\u614c
I8576
sV\u85cf
I616
sV\u6b50
I5331
sV\u8fd3
I4519
sV\u5256
I1097
sV\u9758
I8531
sV\u78dd
I5558
sV\u995c
I4102
sV\u5e5e
I7434
sV\u64e5
I6794
sV\u8564
I4976
sV\u53eb
I263
sV\u90ed
I506
sV\u6276
I1628
sV\u86f9
I7737
sV\u647a
I5907
sV\u88fd
I1232
sV\u9082
I2721
sV\u5584
I983
sV\u5f88
I6765
sV\u650f
I7413
sV\u6f13
I5464
sV\u8892
I6152
sV\u9117
I8901
sV\u9b1b
I4030
sV\u799c
I6496
sV\u9d1f
I3133
sV\u63a0
I5075
sV\u8723
I7762
sV\u65a4
I3349
sV\u8927
I6391
sV\u6fa8
I5852
sV\u91ac
I6997
sV\u56ae
I2628
sV\u7a31
I2162
sV\u9bb0
I7459
sV\u7c35
I6260
sV\u9db4
I68
sV\u683d
I3130
sV\u89bc
I7566
sV\u5743
I9208
sV\u5947
I1265
sV\u7ac6
I8386
sV\u7cca
I6062
sV\u8a51
I8656
sV\u68d2
I5649
sV\u8c55
I4191
sV\u7157
I8556
sV\u59dc
I4584
sV\u9ede
I77
sV\u8ae6
I4105
sV\u8cea
I2397
sV\u506d
I7029
sV\u71ec
I5136
sV\u7bf0
I8886
sV\u7df4
I2790
sV\u8177
I7453
sV\u67f8
I9589
sV\u7581
I9622
sV\u9400
I8665
sV\u5702
I8655
sV\u7385
I9609
sV\u5d06
I5874
sV\u9808
I1270
sV\u678d
I7593
sV\u6d91
I6528
sV\u5697
I6809
sV\u7516
I3167
sV\u5a9f
I9464
sV\u89a9
I4110
sV\u74ab
I3371
sV\u562c
I4591
sV\u72af
I2233
sV\u912e
I7924
sV\u5c30
I9290
sV\u9f32
I9647
sV\u6cbb
I384
sV\u833a
I8571
sV\u6abf
I9179
sV\u893e
I9250
sV\u55c1
I4842
sV\u7440
I8822
sV\u90c3
I7663
sV\u53c5
I4607
sV\u84cb
I1275
sV\u664c
I9461
sV\u6c50
I6102
sV\u88d3
I4134
sV\u5556
I4199
sV\u9058
I4093
sV\u535a
I2694
sV\u65e1
I6608
sV\u8460
I7657
sV\u63e5
I9053
sV\u8264
I5783
sV\u69e9
I5010
sV\u8868
I1115
sV\u97ed
I4201
sV\u716e
I344
sV\u9df1
I8925
sV\u7f72
I5015
sV\u637a
I8608
sV\u8ffd
I1046
sV\u5480
I4245
sV\u5284
I7132
sV\u640b
I7814
sV\u9b8a
I6717
sV\u7e9c
I4881
sV\u8e27
I6199
sV\u68a8
I4016
sV\u7d31
I2726
sV\u9ab4
I7688
sV\u80b8
I6226
sV\u5043
I1300
sV\u77c2
I6938
sV\u9949
I3151
sV\u874d
I9268
sV\u95d6
I6506
sV\u7c5b
I8649
sV\u5edc
I8425
sV\u7a5f
I6804
sV\u99de
I6670
sV\u6063
I3300
sV\u87e2
I8323
sV\u6e67
I2876
sV\u76ec
I5944
sV\u5d71
I6671
sV\u7cf0
I9535
sV\u60f8
I6036
sV\u4f7d
I5922
sV\u8a7f
I8786
sV\u7481
I6403
sV\u5602
I6174
sV\u9304
I1101
sV\u5c06
I3685
sV\u7889
I8593
sV\u668d
I3282
sV\u8d10
I4456
sV\u8b14
I3416
sV\u7416
I7461
sV\u9099
I6293
sV\u721a
I6324
sV\u9e9d
I4518
sV\u82a5
I1600
sV\u75ab
I6846
sV\u6a2a
I1792
sV\u572c
I1578
sV\u902e
I5590
sV\u79b3
I5670
sV\u5b34
I4755
sV\u67b7
I8220
sV\u4f3c
I1212
sV\u6bbf
I328
sV\u54c1
I2258
sV\u7540
I4023
sV\u91c3
I2079
sV\u52c5
I6645
sV\u7344
I1726
sV\u7948
I3512
sV\u85cb
I5900
sV\u674c
I7244
sV\u83cf
I9033
sV\u6b54
I2750
sV\u70d9
I7248
sV\u9158
I9368
sV\u525a
I7292
sV\u585e
I1262
sV\u64e1
I5241
sV\u7a11
I5829
sV\u53ef
I797
sV\u9af5
I9658
sV\u6476
I4280
sV\u80f9
I8109
sV\u627a
I5317
sV\u5384
I2294
sS'\x8e'
I8027
sV\u6913
I5894
sV\u8e92
I7227
sV\u5019
I1426
sV\u9d1b
I4490
sV\u5e1d
I39
sV\u7f9c
I5469
sV\u9b1f
I4136
sV\u8123
I5431
sV\u69a8
I5316
sV\u97ac
I6227
sV\u81b8
I8799
sV\u5143
I1509
sV\u76c2
I1220
sV\u9245
I2826
sV\u7aca
I745
sV\u60ce
I7662
sV\u8a55
I1834
sV\u51d8
I8266
sV\u7d5b
I8848
sV\u6163
I4732
sV\u8ce6
I819
sV\u566d
I4079
sV\u77ec
I6606
sV\u5c71
I41
sV\u5a75
I8467
sV\u7bf4
I8561
sV\u61f8
I531
sV\u6ffc
I7118
sV\u7185
I8867
sV\u9004
I5896
sV\u5f06
I8523
sV\u840c
I4521
sV\u6f91
I8591
sV\u8e10
I1480
sV\u6995
I6283
sV\u8814
I6827
sV\u711a
I1668
sV\u589f
I715
sV\u7b1e
I3963
sV\u6522
I4872
sV\u6f26
I8459
sV\u542c
I5961
sV\u70af
I2468
sV\u932e
I7177
sV\u7ab3
I5823
sV\u5834
I1126
sV\u8b3e
I1894
sV\u7a48
I8903
sV\u86cb
I8318
sV\u80cf
I6454
sV\u4fd1
I8442
sV\u6854
I6235
sV\u73d9
I8605
sV\u515a
I9640
sV\u7ddd
I4496
sV\u8a68
I5343
sV\u736e
I5209
sV\u7d72
I358
sV\u6776
I8839
sV\u83f9
I8331
sV\u4efb
I437
sV\u8dfd
I7123
sV\u5680
I7722
sV\u7c07
I3092
sV\u660b
I9444
sV\u600f
I7280
sV\u838e
I806
sV\u6a13
I37
sV\u8d92
I8795
sV\u5319
I5934
sV\u9e1b
I3477
sV\u981f
I1951
sV\u66a0
I3419
sV\u60a4
I7970
sV\u53ae
I7518
sV\u9eb0
I5162
sV\u6339
I3221
sV\u82b8
I4327
sV\u6d3d
I3176
sV\u8cbc
I4423
sV\u9741
I8553
sV\u5243
I5295
sV\u75c2
I7487
sV\u63ce
I5240
sV\u8f51
I7216
sV\u6dd2
I2664
sV\u7457
I8762
sV\u52d8
I1737
sV\u6263
I3098
sV\u6c67
I8138
sV\u8fe6
I5664
sV\u966b
I8375
sV\u74ec
I5991
sV\u906f
I2496
sV\u5f71
I431
sV\u78f4
I5306
sV\u8477
I6932
sV\u8e7b
I4849
sV\u887f
I1793
sV\u7681
I4651
sV\u9700
I3750
sV\u5e06
I521
sV\u9b08
I3752
sV\u580a
I5339
sV\u850c
I2948
sV\u7616
I5561
sV\u9299
I8700
sV\u701a
I3386
sV\u86a1
I6574
sV\u6422
I999
sV\u80a5
I236
sV\u6e26
I1304
sV\u682a
I1237
sV\u71af
I8047
sV\u5f30
I8307
sV\u7bb3
I5878
sV\u9c32
I4413
sV\u65b7
I210
sV\u69bf
I7186
sV\u8a3e
I5322
sV\u56c1
I6509
sV\u7740
I3137
sV\u93c3
I3079
sV\u50c5
I1259
sV\u9dc7
I4944
sV\u5ac9
I419
sV\u7b48
I7752
sV\u87cb
I2453
sV\u81cf
I6728
sV\u6954
I6812
sV\u72d9
I4252
sV\u505a
I4839
sV\u7cdd
I6086
sV\u9d5c
I4266
sV\u5a5e
I9143
sV\u8760
I5374
sV\u60e5
I8435
sV\u8164
I7376
sV\u6ae9
I1911
sV\u7c72
I5707
sV\u98f5
I6737
sV\u6676
I5085
sV\u82f9
I4594
sV\u8cfd
I5318
sV\u7d07
I8432
sV\u5b88
I459
sV\u670b
I1068
sV\u610f
I8
sV\u828e
I6775
sV\u6b13
I8098
sV\u9f1b
I6042
sV\u7d9c
I6924
sV\u991f
I3246
sV\u61a4
I2675
sV\u742d
I7466
sV\u95ac
I3723
sV\u7e31
I1606
sV\u99b4
I1382
sV\u6239
I7886
sV\u8dbc
I4040
sV\u9641
I3581
sV\u5343
I305
sV\u5d47
I2570
sV\u9a49
I8497
sV\u78ca
I3798
sV\u6cd2
I9391
sV\u8855
I7870
sV\u96d6
I592
sV\u7f5b
I6806
sV\u795f
I6419
sV\u976b
I6072
sV\u7ff0
I2630
sV\u5875
I258
sV\u79f4
I9157
sV\u8577
I3567
sV\u63f8
I8851
sV\u6dfc
I6056
sV\u897f
I189
sV\u7981
I801
sV\u9800
I7791
sV\u7f85
I1686
sV\u5106
I7363
sV\u7589
I7497
sV\u570a
I9254
sV\u6b8d
I3608
sV\u8a0c
I7147
sV\u6191
I1481
sV\u8010
I3038
sV\u6795
I557
sV\uff1a
I7815
sV\u939d
I9445
sV\u751e
I3714
sV\u89a1
I7226
sV\u85a9
I1733
sV\u672a
I256
sV\u5a2c
I5525
sV\u9332
I7419
sV\u5634
I4922
sV\u8936
I7191
sV\u60bb
I8158
sV\u853e
I5303
sV\u59c1
I7541
sV\u5fc5
I1350
sV\u7e44
I3384
sV\u55c9
I8348
sV\u88cb
I2452
sV\u8ecf
I4069
sV\u6050
I594
sV\u84d3
I5884
sV\u9c58
I4229
sV\u5f5a
I8141
sV\u555e
I3843
sV\u8e64
I1680
sV\u65e9
I267
sV\u58eb
I1567
sV\u7d6e
I3056
sV\u91f1
I6826
sV\u54f3
I5572
sV\u7372
I1772
sV\u97f5
I2500
sV\u6976
I5334
sV\u6f7a
I1520
sV\u83fd
I3565
sV\u5880
I3179
sV\u7207
I5301
sV\u9186
I2938
sV\u5488
I8227
sV\u8d8e
I9336
sV\u6413
I7521
sV\u8392
I5324
sV\u5d19
I4100
sV\u7c98
I5173
sV\u531d
I5262
sV\u68a0
I8324
sV\u7b2d
I4851
sV\u5dae
I3890
sV\u7131
I8122
sV\u90b0
I8834
sV\u53b2
I2523
sV\u7735
I4965
sV\u96b4
I301
sV\u6d39
I7600
sV\u8cb8
I2373
sV\u633d
I2655
sV\u82bc
I6002
sV\u9941
I5062
sV\u7bc2
I5879
sV\u9f45
I5964
sV\u5247
I1943
sV\u8b4d
I6259
sV\u4e4f
I2577
sV\u6dce
I9339
sV\u8151
I3873
sV\u63d2
I2485
sV\u8755
I2399
sV\u7a57
I664
sV\u95de
I7705
sV\u4ee4
I793
sV\u986b
I1355
sV\u87ea
I5603
sV\u5171
I494
sV\u5775
I9654
sV\u76f4
I1395
sV\u7881
I6311
sV\u5006
I4833
sV\u7489
I2357
sV\u8b0c
I9358
sV\u5b97
I1919
sV\u7e1a
I7097
sV\u6026
I8956
sV\u84a9
I9167
sV\u79ab
I7739
sV\u662a
I6587
sV\u7faf
I5459
sV\u5734
I8745
sV\u6bb7
I779
sV\u8836
I3459
sV\u67bf
I524
sV\u58c1
I914
sV\u7940
I2232
sV\u9dc3
I4299
sV\u7f44
I2128
sV\u93c7
I7794
sV\u54c9
I1183
sV\u7548
I8887
sV\u6b4c
I662
sV\u7cd9
I8198
sV\u935c
I8724
sV\u545e
I8701
sV\u8960
I8585
sV\u8f64
I4431
sV\u8568
I6057
sV\u59eb
I8831
sV\u9aed
I5239
sV\u7c6e
I7866
sV\u7272
I5531
sV\u6876
I7736
sV\u82fd
I9663
sV\u7d03
I6094
sV\u5588
I5165
sV\u968a
I2344
sV\u6f0f
I1594
sV\u8c8e
I4121
sV\u8292
I1796
sV\u5c19
I4355
sV\u7d98
I7420
sV\u911b
I8089
sV\u521d
I507
sV\u69a0
I5885
sV\u6fa4
I963
sV\u65a8
I6240
sV\u7a2d
I5978
sV\u5cae
I9620
sV\u7635
I5676
sV\u97b4
I7734
sV\u4eba
I34
sV\u623d
I8184
sV\u5347
I951
sV\u76ca
I1495
sV\u4f4f
I1688
sV\u62d2
I5145
sV\u8655
I35
sV\u5dd8
I759
sV\u775f
I2566
sV\u6d63
I1368
sV\u8ae2
I9065
sV\u6367
I3214
sS'\xe6'
I7981
sV\u5a6d
I4510
sV\u7bec
I9681
sV\u9f6f
I4056
sV\u77f4
I7253
sV\u8b77
I1616
sV\u6df8
I5359
sV\u9a00
I7720
sV\u7d85
I9498
sV\u5306
I1503
sV\u4f0e
I4832
sV\u8210
I5526
sV\u6595
I3753
sV\u5897
I9012
sV\u529b
I1076
sV\u7d1a
I4815
sV\u919d
I9591
sV\u7aab
I5822
sV\u652a
I3590
sV\u9f2e
I5880
sV\u5230
I764
sV\u9132
I3087
sV\u5434
I2946
sV\u4e38
I3286
sV\u64bf
I7519
sV\u873e
I8279
sV\u5bc1
I9394
sV\u7a40
I2981
sV\u90c7
I8058
sV\u8acb
I2439
sV\u905c
I5696
sV\u8a60
I2474
sV\u6de5
I3012
sV\u67e9
I5074
sV\u5aeb
I2599
sV\u99ed
I2754
sV\u5cef
I4578
sV\u7f6e
I2364
sV\u8ff9
I1130
sV\u6d7a
I9284
sV\u677e
I1168
sV\u6c0f
I1956
sV\u6613
I529
sV\u9817
I736
sV\u7e98
I5984
sV\u6aa0
I1846
sV\u8e23
I3609
sV\u66a8
I4643
sV\u792d
I6156
sV\u5fae
I112
sV\u7331
I4675
sV\u51b2
I3217
sV\u94b4
I6740
sV\u613d
I7334
sS'\xbc'
I7995
sV\u9b41
I2189
sV\u5e43
I5221
sV\u5047
I2311
sV\u9749
I6104
sV\u75ca
I4778
sV\u894d
I8718
sV\u6fce
I8748
sV\u8351
I3679
sV\u8555
I5927
sV\u9bd6
I5195
sV\u725b
I282
sV\u745f
I3200
sV\u97de
I4158
sV\u6e63
I7969
sV\u6067
I6200
sV\u85ea
I2296
sV\u596d
I6592
sV\u78ec
I555
sV\u5371
I338
sV\u9673
I409
sV\u74f4
I3518
sV\u8877
I4342
sV\u6ef8
I6868
sV\u7a81
I2081
sV\u5802
I624
sV\u5206
I398
sV\u9708
I1930
sV\u540a
I5509
sV\u890c
I3955
sV\u6291
I1137
sV\u6495
I6919
sV\u8514
I2412
sV\u559f
I2988
sV\u761e
I6069
sV\u8aa1
I4861
sV\u4fa3
I1990
sV\u6822
I327
sV\u86a9
I5004
sV\u642a
I9577
sV\u592c
I3243
sV\u7daf
I8248
sV\u5330
I4317
sV\u77b3
I3701
sV\u9032
I2254
sV\u69b7
I5028
sV\u8a36
I2651
sV\u4f38
I1333
sV\u8c3a
I4763
sV\u65bf
I5223
sV\u5ac1
I2714
sV\u7b40
I4736
sV\u7d44
I3414
sV\u91c7
I2605
sV\u56c9
I8594
sV\u8dcf
I3794
sV\u6350
I3101
sV\u6554
I7018
sV\u9f58
I9316
sV\u70dd
I5500
sV\u565e
I6058
sV\u6ce5
I1581
sV\u8d64
I1286
sV\u66e9
I3295
sV\u8768
I1547
sV\u5beb
I823
sV\u98ed
I875
sV\u7e6e
I7612
sV\u57f3
I9599
sV\u6c7a
I3244
sV\u80fd
I18
sV\u5d84
I4311
sV\u6d0f
I6354
sV\u6713
I2898
sV\u9917
I6884
sV\u5e19
I703
sV\u8127
I8311
sV\u782d
I4522
sV\u99ac
I334
sV\u5eae
I9485
sV\u7231
I8737
sV\u93b0
I7066
sV\u50b2
I2012
sV\u7435
I5598
sV\u95b4
I3556
sV\u6e39
I8057
sV\u9a41
I6469
sV\u9c45
I8935
sV\u5147
I4669
sV\u74ca
I1865
sV\u884d
I4264
sV\u6ece
I2335
sV\u8251
I7437
sV\u7957
I2171
sV\u9ad6
I7584
sV\u5fd8
I408
sV\u51dc
I982
sV\u96de
I1199
sV\u6167
I4278
sV\u82e6
I16
sV\u9b6b
I9360
sV\u79ec
I6033
sV\u9d6f
I9296
sV\u9773
I2987
sV\u5475
I3757
sV\u75f4
I2748
sV\u837b
I5487
sV\u61fc
I3607
sV\u5f02
I8224
sV\u7b85
I8574
sV\u9a04
I3816
sV\u5506
I9550
sV\u7189
I8810
sV\u9008
I3570
sV\u530a
I8367
sV\u6f8d
I6716
sV\u6591
I3235
sV\u8410
I7827
sV\u5e97
I919
sV\u7d16
I8717
sV\u9999
I763
sV\u529f
I436
sV\u711e
I2857
sV\u6f22
I822
sV\u6526
I8627
sV\u81a9
I1438
sV\u632a
I9526
sV\u7aaf
I6362
sV\u992e
I5795
sV\u5430
I6248
sV\u70b3
I5258
sV\u9732
I76
sV\u6eb7
I5698
sV\u64bb
I6077
sV\u813e
I4416
sV\u7c40
I5732
sV\u98c3
I8049
sV\u5bc5
I4587
sV\u7a44
I8812
sV\u96c7
I5803
sV\u51c9
I572
sV\u8acf
I2107
sV\u6450
I7174
sV\u9858
I2022
sV\u5b5a
I2167
sV\u965c
I2991
sV\u6de1
I513
sV\u8068
I2621
sV\u93f5
I7164
sV\u617e
I5825
sV\u5c80
I7542
sV\u6c0b
I7495
sV\u4e8c
I397
sV\u6a0f
I9411
sV\u6013
I9035
sV\u5919
I1293
sV\u571d
I6656
sV\u769c
I6412
sV\u6ca0
I9357
sV\u8823
I7182
sV\u8627
I4727
sV\u7531
I796
sV\u7335
I8096
sV\u6939
I4670
sV\u673d
I1032
sV\u9d41
I6866
sV\u7fc2
I8382
sV\u9b45
I4263
sV\u5647
I5665
sV\u9149
I4174
sV\u73ca
I3959
sV\u8f4d
I1682
sV\u69ce
I2253
sV\u9dd6
I5365
sV\u58d8
I3712
sV\u745b
I6481
sV\u725f
I5067
sV\u8fe2
I3296
sV\u6667
I9586
sV\u83ea
I7540
sV\u5f6d
I1328
sV\u5375
I3016
sV\u72f4
I5450
sV\u8e77
I6497
sV\u66fc
I4054
sV\u827f
I8913
sV\u5e02
I266
sV\u7a85
I4814
sV\u9b04
I8932
sV\u7089
I8104
sV\u520a
I4345
sV\u6295
I323
sV\u5f97
I576
sV\u559b
I9323
sV\u7a1a
I768
sV\u539f
I224
sV\u8ca1
I4144
sV\u8aa5
I4335
sV\u6426
I7883
sV\u80a9
I2642
sV\u7dab
I4099
sV\u622a
I2909
sV\u7baf
I7837
sV\u982e
I3591
sV\u71b3
I5455
sV\u9632
I417
sV\u5334
I8075
sV\u8a3a
I9164
sV\u5cc1
I6976
sV\u7d40
I6515
sV\u99c3
I7364
sV\u50c9
I6641
sV\u8dcb
I4072
sV\u4ecd
I1472
sV\u9958
I2579
sV\u5a5a
I2713
sV\u76dd
I8444
sV\u975c
I290
sV\u6ce1
I3985
sV\u8168
I7958
sV\u5deb
I2112
sV\u9eed
I6792
sV\u786e
I2564
sV\u51f3
I9176
sV\u7672
I9383
sV\u6c76
I6355
sV\u88f9
I1209
sV\u9e82
I8484
sV\u5b84
I6579
sV\u7707
I3352
sV\u6d0b
I3082
sV\u6113
I7115
sV\u9f17
I8163
sV\u5819
I3261
sV\u7998
I9201
sV\u931f
I8869
sV\u6ba4
I4395
sV\u8727
I6736
sV\u61a8
I6876
sV\u58ae
I429
sV\u7431
I5397
sV\u56b2
I5236
sV\u7235
I980
sV\u6839
I889
sV\u89b8
I7199
sV\u9a45
I1326
sV\u5747
I1929
sV\u8e4d
I6452
sV\u8451
I4018
sV\u66d2
I6521
sV\u59d8
I9407
sV\u755b
I5514
sV\u57dc
I7464
sV\u6963
I6352
sV\u7fec
I3887
sV\u9b6f
I2614
sV\u5471
I6328
sV\u75f0
I4598
sV\u5275
I3868
sV\u69f8
I9652
sV\u857b
I8329
sV\u837f
I6289
sV\u7985
I4208
sV\u9804
I8380
sV\u7389
I949
sV\u6791
I7749
sV\u8610
I6909
sV\u6195
I7502
sV\u8014
I3457
sV\u6726
I4468
sV\u83a9
I5915
sV\u78af
I8987
sV\u9b2e
I7627
sV\u5630
I8251
sV\u8f36
I5819
sV\u53c9
I1661
sV\u7248
I5586
sV\u8ecb
I4466
sV\u88cf
I162
sV\u82d3
I5627
sV\u6054
I8914
sV\u5f56
I7559
sV\u7bd9
I4304
sV\u9a58
I7040
sV\u595a
I2176
sV\u535e
I4728
sV\u6fe1
I2236
sV\u8e60
I4337
sV\u69e5
I9142
sV\u63e9
I6425
sV\u8268
I8357
sV\u58ef
I132
sV\u7b6e
I5319
sV\u52f3
I1972
sV\u91f5
I5543
sV\u5e80
I2742
sV\u7a03
I6887
sV\u9d82
I8410
sV\u5884
I6330
sV\u7407
I7553
sV\u5288
I3560
sV\u8b8e
I3410
sV\u5b19
I5457
sV\u7a98
I1217
sV\u749c
I5809
sV\u901f
I1624
sV\u6ea0
I8476
sV\u8a23
I4889
sV\u8427
I5624
sV\u62a8
I6284
sV\u5bae
I974
sV\u96b0
I2855
sV\u90b4
I3306
sV\u4fb6
I3871
sV\u6b39
I1424
sV\u653d
I7980
sV\u84bc
I81
sV\u9f41
I4447
sV\u9945
I8870
sV\u4e4b
I1617
sV\u8d4d
I5058
sV\u6bce
I2462
sV\u8751
I8284
sV\u65d2
I3472
sV\u8155
I5377
sV\u93de
I4863
sV\u6467
I2690
sV\u81ea
I155
sV\u986f
I2136
sV\u5771
I4290
sV\u76f0
I8920
sV\u5175
I324
sV\u6af8
I8849
sV\u867b
I5439
sV\u807f
I5810
sV\u7e81
I7105
sV\u5c02
I7382
sV\u5606
I2883
sV\u7289
I8338
sV\u6c8d
I3237
sV\u6691
I699
sV\u6095
I6724
sV\u579b
I7523
sV\u721e
I7578
sV\u8ea1
I3443
sV\u82a9
I8418
sV\u7fab
I9531
sV\u602a
I425
sV\u9a2e
I3835
sV\u5730
I365
sV\u73b3
I5789
sV\u9432
I8242
sV\u6db7
I6394
sV\u8e36
I6460
sV\u67bb
I4269
sV\u883a
I8492
sV\u5ec1
I5134
sV\u58c5
I5766
sV\u95c7
I4915
sV\u52c9
I1942
sV\u8fcb
I9593
sV\u6750
I2763
sV\u83d3
I5276
sV\u5e56
I7427
sV\u9b58
I6510
sV\u585a
I3839
sV\u74dd
I9664
sV\u525e
I6066
sV\u8f60
I7287
sV\u8964
I9088
sV\u5feb
I240
sV\u9ced
I5416
sV\u7a6e
I6416
sV\u96f1
I9372
sV\u53f3
I2354
sV\u7472
I9172
sV\u90f5
I1255
sV\u84fd
I1249
sV\u5f80
I884
sV\u5984
I4222
sV\u9686
I3205
sV\u908a
I522
sV\u690f
I7710
sV\u7b98
I6257
sV\u971b
I9348
sV\u541d
I3755
sV\u4e21
I8738
sV\u6fa0
I6043
sV\u69a4
I8639
sV\u63a8
I1127
sV\u9dac
I6914
sV\u5aae
I7647
sV\u54b2
I7472
sV\u7035
I7607
sV\u91b4
I4894
sV\u4eb6
I7297
sV\u6a39
I128
sV\u643d
I8613
sV\u5b43
I9125
sV\u76c6
I1842
sV\u9249
I3803
sV\u4f4b
I9645
sV\u70ca
I8108
sV\u64d2
I932
sV\u5bd8
I6903
sV\u775b
I4837
sV\u98da
I4697
sV\u55dc
I1156
sV\u4fe0
I3508
sV\u6b63
I826
sV\u8ce2
I1108
sV\u6567
I5888
sV\u5c6d
I5777
sV\u7dec
I2479
sV\u5671
I4953
sV\u77f0
I6014
sV\u9373
I7392
sV\u5075
I6464
sV\u8d77
I311
sV\u6bf8
I7011
sV\u877b
I6795
sV\u817f
I7504
sV\u6302
I1340
sV\u8a87
I1781
sV\u6f0a
I9280
sV\u968f
I3664
sV\u750e
I5133
sV\u6297
I2900
sV\u6e9f
I2130
sV\u9020
I1291
sV\u74a3
I2965
sV\u9624
I6159
sV\u83ad
I7007
sV\u6830
I6631
sV\u6e34
I3175
sV\u95b9
I6967
sV\u58bb
I1627
sV\u7a3c
I4516
sV\u8342
I5256
sV\u67c5
I6197
sV\u8946
I2806
sV\u8f4a
I9210
sV\u73cd
I2604
sV\u524c
I4533
sV\u79d1
I3899
sV\u7fd5
I2985
sV\u5e54
I3737
sV\u82d7
I1861
sV\u88db
I6153
sV\u8edf
I2945
sV\u6d5e
I8899
sV\u51e1
I1530
sV\u7362
I9433
sV\u9ae7
I6003
sV\u7f6a
I1735
sV\u826c
I8450
sV\u8870
I724
sV\u6cf3
I2493
sV\u8e74
I4692
sV\u72f7
I5738
sV\u5176
I1950
sV\u78fb
I5227
sV\u5d7e
I9625
sV\u8101
I9126
sV\u6684
I3430
sV\u6c88
I3917
sV\u500b
I1652
sV\u560f
I6378
sV\u7890
I3528
sV\u9f15
I7668
sV\u7e94
I2
sV\u6519
I1807
sV\u6b1d
I7012
sV\u7121
I142
sV\u7725
I2878
sV\u7d29
I8917
sV\u5ca8
I8160
sV\u65ae
I8211
sV\u6bb2
I5172
sV\u9237
I6236
sV\u983b
I1361
sV\u7dbe
I6300
sV\u6443
I9678
sV\u86c4
I5604
sV\u6a47
I8121
sV\u8cc8
I2316
sV\u4fca
I3586
sV\u764f
I6758
sV\u7c53
I7222
sV\u5bd2
I125
sV\u9ed4
I4868
sV\u8559
I1440
sV\u64d8
I2024
sV\u6adc
I5396
sV\u4e5f
I1089
sV\u9161
I5426
sV\u76e4
I706
sV\u9d69
I5855
sV\u636d
I7074
sV\u6971
I8148
sV\u7579
I2001
sV\u97fa
I3045
sV\u9dfe
I7113
sV\u8b87
I9487
sV\u918b
I6953
sV\u528d
I813
sV\u978f
I5103
sV\u5e95
I1409
sV\u699b
I4109
sV\u6f9f
I6999
sV\u9120
I3463
sV\u75a3
I4949
sV\u9724
I3284
sV\u7ba7
I7591
sV\u5826
I2433
sV\u9d28
I3631
sV\u82ad
I4816
sV\u88b1
I9253
sV\u6930
I5957
sV\u7538
I3395
sV\u59bb
I423
sV\u8242
I7842
sV\u8846
I1327
sV\u6cc9
I1114
sV\u8e4a
I2601
sV\u78d1
I4143
sV\u5950
I2430
sV\u665a
I265
sV\u6c5e
I4015
sV\u7262
I1298
sV\u5ce9
I2646
sV\u61eb
I9482
sV\u7e6a
I1974
sV\u836c
I9538
sV\u67ef
I1321
sV\u6df3
I2522
sV\u73f7
I6269
sV\u5076
I869
sV\u79fb
I748
sV\u7fff
I5207
sV\u8001
I138
sV\u6180
I3291
sV\u8605
I5099
sV\u6d88
I652
sV\u510b
I4606
sV\u920d
I4798
sV\u570f
I7019
sV\u9811
I405
sV\u9e15
I5606
sV\u7f94
I4902
sV\u8096
I2537
sV\u6a1d
I5886
sV\u8c9e
I2745
sV\u7021
I7773
sV\u51a0
I386
sV\u7625
I7286
sV\u57a4
I6625
sV\u5da8
I9573
sV\u812b
I1413
sV\u9eaa
I9541
sV\u872f
I8062
sV\u64ae
I6053
sV\u5439
I333
sV\u76ba
I6011
sV\u7cbe
I1302
sV\u81c0
I6096
sV\u87c4
I4700
sV\u6b47
I1525
sV\u4eca
I295
sV\u93cc
I5501
sV\u99d0
I2263
sV\u7d53
I6150
sV\u8a5d
I8636
sV\u9061
I3534
sV\u71e0
I2353
sV\u5563
I4693
sV\u7de8
I613
sV\u626d
I9287
sV\u84ee
I1494
sV\u6871
I8566
sV\u8af2
I8663
sV\u55f8
I8712
sV\u96fa
I6178
sV\u7a7d
I4138
sV\u6d0a
I6558
sV\u518d
I1753
sV\u770e
I2141
sV\u9e93
I3043
sV\u5d95
I5773
sV\u6097
I6526
sV\u8618
I9567
sV\u6a9b
I3769
sV\u78a7
I574
sV\u5d2a
I6849
sV\u4eb3
I5735
sV\u6c34
I22
sV\u50b7
I374
sV\u5abb
I7513
sV\u99bd
I4535
sV\u65c5
I849
sV\u8b46
I6358
sV\u6fc9
I4338
sV\u4e48
I4241
sV\u8d4a
I8173
sV\u9952
I672
sV\u80d7
I9104
sV\u8adb
I2228
sV\u655a
I394
sV\u6f5e
I6966
sV\u53e1
I9335
sV\u96e3
I589
sV\u7162
I6370
sV\u55e5
I6376
sV\u98e7
I1407
sV\u7b66
I4454
sV\u5fe9
I9405
sV\u62eb
I6012
sV\u7d6a
I5217
sV\u64ef
I6098
sV\u8a70
I2617
sV\u9678
I2295
sV\u8301
I5889
sV\u6280
I4780
sV\u8f09
I404
sV\u6e88
I8036
sV\u520b
I9014
sV\u540f
I1072
sV\u9b11
I9518
sV\u7a90
I8064
sV\u7c94
I7389
sV\u8396
I1782
sV\u6719
I9274
sV\u52a0
I2043
sV\u91a2
I2206
sV\u7525
I4211
sV\u54a4
I4082
sV\u5ea8
I8713
sV\u822b
I3323
sV\u67ae
I7768
sV\u8e33
I8419
sV\u9a3b
I8642
sV\u7fbe
I5477
sV\u6643
I5292
sV\u84c4
I3428
sV\u724b
I3080
sV\u57ce
I541
sV\u9ad0
I9148
sV\u59d2
I3741
sV\u8759
I5373
sV\u72e0
I4156
sV\u5663
I6759
sV\u74e4
I6609
sV\u9f69
I7781
sV\u7779
I1597
sV\u58fc
I6351
sV\u8783
I7696
sV\u8987
I4274
sV\u4e89
I2447
sV\u6c0a
I1837
sV\u508d
I758
sV\u958f
I3134
sV\u6197
I5640
sV\u8718
I6080
sV\u6b9b
I6573
sV\u4e1e
I3053
sV\u9320
I9553
sV\u79a7
I6336
sV\u5c2a
I6243
sV\u612c
I5605
sV\u6d34
I8291
sV\u51b7
I280
sV\u96b9
I7957
sV\u7738
I1856
sV\u5bbb
I9209
sV\u64c5
I2782
sV\u8a46
I4623
sV\u6ec9
I4370
sV\u4f48
I5613
sV\u8c4a
I8126
sV\u514c
I6068
sV\u7ad1
I8473
sV\u5b50
I744
sV\u9852
I6099
sV\u7cd5
I7263
sV\u5d54
I9514
sV\u8ddf
I7006
sV\u6e5e
I8897
sV\u97e3
I8829
sV\u7062
I9295
sV\u54e5
I6564
sV\u5ee9
I3916
sV\u63eb
I4920
sV\u8b70
I966
sV\u6ff3
I9229
sV\u8d74
I2237
sV\u5276
I9326
sV\u9778
I8052
sV\u547a
I9496
sV\u5e7e
I1535
sV\u8201
I6239
sV\u6380
I1907
sV\u8e09
I4848
sV\u6f88
I3091
sV\u900d
I3657
sV\u550f
I8136
sV\u9a11
I3885
sV\u7b90
I8456
sV\u5f13
I1317
sV\u9c15
I1966
sV\u681d
I6648
sV\u8e9e
I5511
sV\u53a0
I2777
sV\u90a2
I6427
sV\u7425
I5968
sV\u55a4
I9555
sV\u7e29
I4859
sV\u5fa8
I3397
sV\u832b
I642
sV\u852f
I8964
sV\u66ae
I67
sV\u8f33
I5846
sV\u68b2
I7221
sV\u72b6
I2902
sV\u5639
I6113
sV\u9b3b
I3948
sV\u74ba
I6079
sV\u583d
I8039
sV\u9d3f
I5155
sV\u83c0
I6085
sV\u6947
I9344
sV\u91cc
I447
sV\u754f
I1763
sV\u58d2
I7200
sV\u9dd4
I3526
sV\u67d8
I2631
sV\u885d
I879
sV\u69dc
I7679
sV\u73e0
I1227
sV\u75e4
I8437
sV\u5967
I4409
sV\u606d
I988
sV\u57f8
I6589
sV\u6702
I5312
sV\u8e87
I3011
sV\u6b0a
I2426
sV\u578d
I8842
sV\u5b95
I3417
sV\u6697
I51
sV\u8018
I1857
sV\u6c9b
I2292
sV\u6a9f
I4328
sV\u5d26
I5711
sV\u5b2a
I5211
sV\u87ad
I947
sV\u662c
I8087
sV\u91b9
I7443
sV\u5abf
I2285
sV\u65c1
I1783
sV\u8742
I8301
sV\u8b4a
I5548
sV\u77cd
I4723
sV\u564c
I6247
sV\u914e
I3815
sV\u7dd1
I8732
sV\u5c50
I2042
sV\u9f52
I1129
sV\u6556
I2813
sV\u8cdb
I9017
sV\u4fdd
I1132
sV\u8adf
I7444
sV\u695e
I5291
sV\u7762
I2105
sV\u53e5
I753
sV\u9ee7
I4041
sV\u7d66
I3992
sV\u64eb
I4077
sV\u866c
I4499
sV\u62ef
I2972
sV\u9078
I3153
sV\u7cfb
I1087
sV\u537a
I4216
sV\u7aff
I2383
sV\u8305
I733
sV\u6284
I3102
sV\u8909
I7480
sV\u970d
I2935
sV\u7a94
I7758
sV\u8596
I6504
sV\u839a
I8896
sV\u7521
I8519
sV\u7325
I3892
sV\u58a8
I1649
sV\u9baa
I3929
sV\u61ae
I7860
sV\u5139
I7367
sV\u9c3b
I6275
sV\u79be
I1344
sV\u84c0
I5739
sV\u6043
I1483
sV\u744b
I9045
sV\u96cc
I2936
sV\u724f
I9353
sV\u51ce
I9569
sV\u5fd2
I7284
sV\u9ad4
I1843
sV\u60d8
I1878
sV\u8f5d
I4383
sV\u74e0
I5045
sV\u78e8
I1588
sV\u676d
I4903
sV\u93fa
I8770
sV\u7f7d
I7156
sV\u5efc
I4704
sV\u6602
I1526
sV\u958b
I44
sV\u6a0a
I3123
sV\u5c91
I894
sV\u5a95
I5699
sV\u6797
I95
sV\u8118
I5983
sV\u8f1c
I5108
sV\u71a3
I9238
sV\u9928
I904
sV\u672c
I782
sV\u8ab5
I4840
sV\u5dbb
I8077
sV\u9ebd
I4242
sV\u5bbf
I856
sV\u64c1
I2490
sV\u8c46
I2040
sV\u68c9
I9639
sV\u76cd
I2013
sV\u574c
I4541
sV\u904e
I120
sV\u5d50
I1378
sV\u5b54
I2718
sV\u6456
I5073
sV\u8ddb
I2376
sV\u4edd
I6666
sV\u685e
I8950
sV\u54e1
I3898
sV\u91e3
I611
sV\u7662
I5150
sV\u58e9
I6109
sV\u8d70
I873
sV\u69f3
I651
sV\u8b74
I4879
sV\u5476
I5619
sV\u9178
I2885
sV\u7dfb
I7556
sV\u527a
I5910
sV\u7bff
I8695
sV\u587e
I5466
sV\u8401
I6010
sV\u8205
I2291
sV\u6384
I3821
sV\u8809
I8132
sV\u778c
I4444
sV\u530f
I3009
sV\u9a15
I4971
sV\u7b94
I5214
sV\u6019
I1611
sV\u829a
I8373
sV\u6e1d
I2244
sV\u4f9c
I8679
sV\u889e
I5638
sV\u7225
I9196
sV\u53a4
I9138
sV\u59a8
I1822
sV\u852b
I5507
sV\u832f
I5626
sV\u60ae
I7763
sV\u6eb2
I6763
sV\u9d3b
I209
sV\u72ba
I8420
sV\u5e3d
I1208
sV\u78be
I5708
sV\u754b
I5224
sV\u97cc
I8328
sV\u50ce
I7891
sV\u7953
I2768
sV\u61d8
I5812
sV\u8e5d
I8313
sV\u9265
I9060
sV\u5f67
I7658
sV\u80ee
I6822
sV\u51f8
I1904
sV\u7e7d
I3738
sV\u5ffc
I9163
sV\u98fe
I3681
sV\u8283
I5546
sV\u6502
I9374
sV\u6f06
I1585
sV\u968b
I4073
sV\u908f
I4119
sV\u5f91
I336
sV\u7d12
I9483
sV\u6497
I9074
sV\u8218
I3905
sV\u689f
I5851
sV\u7ca7
I1497
sV\u5f26
I1469
sV\u592a
I180
sV\u642c
I9438
sV\u8fb1
I2753
sV\u6e30
I7872
sV\u6834
I5667
sV\u54b7
I4682
sV\u5ebb
I7463
sV\u67c1
I4703
sV\u8542
I9185
sV\u8f46
I4430
sV\u6bc9
I4332
sV\u75cd
I5327
sV\u544c
I3327
sV\u5e50
I8546
sV\u9d52
I6267
sV\u79d5
I8235
sV\u5854
I3660
sV\u6756
I1427
sV\u8edb
I4919
sV\u615a
I356
sV\u88df
I5781
sV\u57e1
I9552
sV\u92e3
I5565
sV\u7562
I3192
sV\u9ce7
I4667
sV\u7f66
I7893
sV\u5be9
I3918
sV\u846c
I1069
sV\u8e70
I3308
sV\u6af3
I5703
sV\u74f7
I6850
sV\u9278
I1656
sV\u9c7c
I4436
sV\u6680
I8763
sV\u8105
I6278
sV\u6084
I4482
sV\u500f
I4534
sV\u5a13
I8493
sV\u9915
I6799
sV\u7894
I5298
sV\u819a
I1248
sV\u8b9e
I7261
sV\u7721
I5702
sV\u95a2
I8167
sV\u6db2
I3401
sV\u77b6
I7561
sV\u5339
I2413
sV\u71ba
I9278
sV\u7bbe
I8065
sV\u86c0
I8320
sV\u6243
I920
sV\u80c4
I1973
sV\u53ce
I9011
sV\u9ed0
I6511
sV\u5dd2
I2069
sV\u62d8
I2197
sV\u6cdc
I8945
sV\u9761
I2238
sV\u5263
I8439
sV\u9165
I4067
sV\u5c67
I4300
sV\u656d
I7368
sV\u4ef0
I1690
sV\u8df2
I6530
sV\u6975
I490
sV\u97f6
I1213
sV\u52f8
I2436
sV\u978b
I2862
sV\u548d
I4994
sV\u9b93
I5609
sV\u7c12
I8146
sV\u6597
I376
sS'\x84'
I8012
sV\u9720
I5199
sV\u5e26
I387
sV\u9b28
I5911
sV\u582a
I1359
sV\u84ad
I6463
sV\u652c
I3442
sV\u6f30
I6492
sV\u88b5
I3914
sV\u6934
I9536
sV\u7d3c
I1172
sV\u60c5
I375
sV\u884a
I8872
sV\u924e
I8575
sV\u9c52
I7068
sV\u78d5
I5673
sV\u5954
I800
sV\u605a
I6722
sV\u7462
I9320
sV\u50e5
I5007
sV\u5ae9
I3779
sV\u786a
I7683
sV\u6bf3
I3230
sV\u8974
I7728
sV\u7ffb
I1399
sV\u8005
I1575
sV\u570b
I361
sV\u940d
I6586
sV\u9e11
I5159
sV\u7994
I7445
sV\u8696
I4310
sV\u6219
I8620
sV\u809a
I5666
sV\u8a9e
I579
sV\u7621
I5326
sV\u57a0
I2511
sV\u51a4
I4838
sV\u9ea6
I8343
sV\u872b
I9180
sV\u812f
I343
sV\u4e31
I4959
sV\u8b33
I3468
sV\u6cb2
I6771
sV\u5239
I3341
sV\u9f3b
I2408
sV\u7abe
I5557
sV\u87c0
I2454
sV\u6343
I5977
sV\u81c4
I9230
sV\u4ec6
I3576
sV\u774b
I7582
sV\u95cc
I872
sV\u714f
I9166
sV\u7b53
I7651
sV\u5cd2
I5875
sV\u99d4
I5994
sV\u8259
I7270
sV\u4f5b
I1194
sV\u8c5d
I8634
sV\u6ddc
I8500
sV\u9661
I5687
sV\u5363
I8564
sV\u9065
I3252
sV\u9a69
I2584
sV\u7be8
I6428
sV\u646d
I3049
sV\u6e71
I8646
sV\u96f6
I501
sV\u7279
I2719
sV\u53f8
I2355
sV\u7c7d
I8988
sV\u9afe
I8630
sV\u8c83
I7779
sV\u4f85
I7534
sV\u6106
I3541
sV\u9e8f
I4867
sV\u5191
I8084
sV\u7312
I5266
sV\u5795
I7260
sV\u6a97
I7320
sV\u609b
I7440
sV\u821c
I2960
sV\u9820
I8965
sV\u7ca3
I9533
sV\u72a7
I5537
sV\u5126
I8411
sV\u572a
I5335
sV\u87b5
I8325
sV\u6634
I5862
sV\u9db9
I6961
sV\u7c38
I4653
sV\u50bb
I9124
sV\u723c
I7760
sV\u69c1
I2349
sV\u8146
I5981
sV\u65c9
I9305
sV\u77d5
I9376
sV\u8ad7
I3924
sV\u6956
I7839
sV\u80db
I5953
sV\u86df
I2920
sV\u655e
I2466
sV\u7166
I3688
sV\u68eb
I5902
sV\u776a
I9297
sV\u8a6c
I4875
sV\u6eef
I352
sV\u8070
I3209
sV\u5976
I8066
sV\u9c78
I251
sV\u557e
I3351
sV\u8901
I7479
sV\u6880
I7944
sV\u8f05
I5102
sV\u8509
I6417
sV\u6488
I6128
sV\u580b
I6172
sV\u7a8c
I6881
sV\u8996
I1937
sV\u6d19
I2519
sV\u58a0
I7903
sV\u5ea4
I8475
sV\u54a8
I1612
sV\u63b2
I2796
sV\u9a37
I229
sV\u533d
I7038
sV\u963f
I1074
sV\u75be
I200
sV\u88c0
I2831
sV\u6c43
I9013
sV\u6247
I2460
sV\u784b
I7511
sV\u62dc
I1933
sV\u5c63
I2017
sV\u6b6d
I7716
sV\u6171
I7372
sV\u83f2
I3578
sV\u6775
I811
sV\u7d79
I5931
sV\u6a02
I665
sV\u660a
I4084
sV\u9f8f
I8654
sV\u5091
I2657
sV\u9593
I716
sV\u5695
I8268
sV\u6b97
I9462
sS'\x98'
I8014
sV\u831c
I1367
sV\u9920
I5597
sV\u7da3
I2361
sV\u5026
I1786
sV\u6b2c
I2325
sV\u4faf
I1117
sV\u80b1
I4729
sV\u6734
I3858
sV\u5bb7
I5705
sV\u68c1
I9596
sV\u6ec5
I2213
sV\u8046
I1954
sV\u64c9
I7971
sV\u5b4c
I2459
sV\u9c4e
I8934
sV\u5150
I7610
sV\u81db
I6612
sV\u87df
I9301
sV\u7a62
I4517
sV\u5ee5
I6487
sV\u54e9
I8595
sV\u8b6c
I4445
sV\u6fef
I1377
sV\u8170
I1703
sV\u8774
I5848
sV\u7bf7
I512
sV\u71fb
I4936
sV\u5e7a
I4924
sV\u937c
I4671
sV\u8801
I7560
sV\u6f84
I603
sV\u5f0f
I3312
sV\u9011
I7660
sV\u8896
I1268
sV\u8e9a
I4443
sV\u849e
I6897
sV\u5fa4
I7617
sV\u90a6
I989
sV\u55a8
I8428
sV\u892b
I1836
sV\u96aa
I2186
sV\u8f2f
I4487
sV\u6cae
I3520
sV\u9b37
I3585
sV\u78b6
I9601
sV\u5c39
I4003
sV\u973f
I4009
sV\u89c0
I98
sV\u6d43
I9049
sV\u8fc4
I5577
sV\u794b
I7602
sV\u7f4f
I6634
sV\u5cce
I7089
sV\u91d0
I5091
sV\u52d2
I935
sV\u97d4
I6409
sV\u6dd8
I7033
sV\u63dc
I1565
sV\u79e0
I8541
sV\u5367
I720
sV\u8cee
I8115
sV\u7c79
I7390
sV\u727d
I2677
sV\u8e83
I7914
sV\u8087
I5381
sV\u598d
I2600
sV\u6897
I1833
sV\u8e18
I5243
sV\u629b
I2927
sV\u801c
I3630
sV\u9a20
I7935
sV\u5922
I157
sV\u70a7
I8314
sV\u9628
I6353
sV\u552a
I9304
sV\u83b1
I7822
sV\u6230
I1342
sV\u6434
I3998
sV\u52bb
I7753
sV\u91bd
I4656
sV\u703c
I3229
sV\u54bf
I3842
sV\u6bc1
I2888
sV\u6dc5
I4237
sV\u8346
I2370
sV\u854a
I906
sV\u79cd
I7661
sV\u584c
I8147
sV\u9f4e
I6170
sV\u9152
I377
sV\u75d5
I573
sV\u6b56
I7674
sV\u4fd9
I8838
sV\u82db
I5801
sV\u6d5a
I3601
sV\u675e
I4275
sV\u5be1
I2942
sV\u5de5
I1429
sV\u7366
I5950
sV\u756a
I4500
sV\u6cef
I2534
sV\u66f3
I3716
sV\u78f7
I5790
sV\u72fb
I5375
sV\u907c
I3131
sV\u74ff
I6998
sV\u8b01
I2499
sV\u6a80
I1607
sV\u4e03
I973
sV\u8d05
I4948
sV\u6c84
I2950
sV\u8709
I4272
sV\u6688
I1794
sV\u788c
I4002
sV\u5c0f
I124
sV\u8b96
I4567
sV\u6f19
I5032
sV\u4e98
I3488
sV\u5aa0
I8743
sV\u7729
I1356
sV\u56a8
I6410
sV\u6fae
I5723
sV\u61b2
I2165
sV\u9837
I4314
sV\u5f39
I4145
sV\u7dba
I2724
sV\u6e43
I1853
sV\u8cc4
I6545
sV\u6047
I7083
sV\u86c8
I7636
sV\u92d0
I8401
sV\u60dc
I2066
sV\u7ae0
I1024
sV\u5e63
I7171
sV\u9769
I2870
sV\u696d
I962
sV\u8fee
I7173
sV\u81f2
I7144
sV\u6575
I1566
sV\u9bf6
I9091
sV\u7f79
I3109
sV\u9dfa
I1337
sV\u717d
I6813
sV\u8187
I7426
sV\u640a
I3928
sV\u5291
I5005
sV\u9793
I9359
sV\u639b
I1924
sV\u659f
I1360
sV\u7fa3
I1273
sV\u5226
I9151
sV\u9728
I9174
sV\u542a
I9047
sV\u82b1
I27
sV\u59b7
I8784
sV\u9eb9
I9036
sV\u7f38
I5394
sV\u53bb
I91
sV\u90bd
I6624
sV\u8842
I7621
sV\u6cc5
I7894
sV\u66c9
I87
sV\u9052
I3739
sV\u4ed9
I940
sV\u6c5a
I7756
sV\u85df
I6945
sV\u665e
I3498
sV\u5ae1
I6221
sV\u5ce5
I3289
sV\u91e7
I8238
sV\u6beb
I1694
sV\u746a
I5250
sV\u6def
I7318
sV\u8370
I8823
sV\u67f3
I567
sV\u79f7
I9134
sV\u9f78
I7095
sV\u5c7a
I7274
sV\u75ff
I6929
sV\u6b80
I8874
sV\u5b0b
I3299
sV\u980d
I5490
sV\u5d0f
I9484
sV\u5713
I1657
sV\u8a96
I7277
sV\u6e19
I3676
sV\u4f98
I8201
sV\u601d
I15
sV\u5da4
I3678
sV\u8b2b
I2833
sV\u8733
I8150
sV\u60b2
I293
sV\u7ab6
I3603
sV\u7cba
I8727
sV\u6147
I3115
sV\u87c8
I4162
sV\u7b4b
I4131
sV\u7d4f
I7013
sV\u93d0
I6588
sV\u50d2
I7288
sV\u95d4
I4164
sV\u8e59
I1987
sV\u6fd8
I3421
sV\u61dc
I9061
sV\u7be0
I3953
sV\u5167
I1040
sV\u8eee
I7570
sV\u6271
I4847
sV\u80f2
I9437
sV\u6475
I3673
sV\u7e79
I3900
sV\u5ff8
I5674
sV\u707d
I5167
sV\u6f02
I2939
sV\u790e
I2403
sV\u5591
I6028
sV\u7712
I7717
sV\u8818
I9146
sV\u78a3
I1799
sV\u5f22
I3070
sV\u9a24
I5093
sV\u532a
I2095
sV\u8fad
I89
sV\u6e2c
I2952
sV\u85b1
I8705
sV\u6430
I6970
sV\u83b5
I8614
sV\u6234
I1519
sV\u5eb7
I2586
sV\u99b9
I6766
sV\u54bb
I5617
sV\u763c
I4952
sV\u8f42
I3904
sV\u6bc5
I5140
sV\u8546
I6301
sV\u61c9
I12
sV\u7fcd
I9650
sV\u5e4c
I4760
sV\u994e
I5898
sV\u5450
I9031
sV\u9752
I36
sV\u5254
I5653
sV\u82df
I2757
sV\u615e
I5647
sV\u5de1
I967
sV\u98e3
I4057
sV\u5be5
I488
sV\u7566
I4011
sV\u6ceb
I1179
sV\u736a
I5413
sV\u8e6c
I4196
sV\u60f3
I28
sV\u74fb
I7238
sV\u5b7a
I3216
sV\u967c
I8982
sV\u6a84
I3234
sV\u8109
I4223
sV\u5c0b
I762
sV\u7e8c
I2772
sV\u7490
I6635
sV\u8d96
I9582
sV\u8b9a
I4146
sV\u671d
I193
sV\u819e
I7454
sV\u7d21
I5471
sV\u9fa2
I6397
sV\u7b25
I2480
sV\u93aa
I6434
sV\u69ae
I1047
sV\u8033
I321
sV\u67b2
I6547
sV\u5939
I7977
sV\u943b
I8552
sV\u923f
I4696
sV\u71be
I3262
sV\u8cc0
I2929
sV\u6843
I150
sV\u4fc2
I6214
sV\u8ac4
I3819
sV\u80c8
I9114
sV\u7c4b
I6141
sV\u9ecc
I4061
sV\u7a4f
I2341
sV\u57d2
I6441
sV\u68d8
I1722
sV\u875d
I5580
sV\u66dc
I4828
sV\u9d61
I3139
sV\u7ce0
I4238
sV\u9169
I3976
sV\u6f6d
I3322
sV\u87f2
I52
sV\u777d
I4524
sV\u8983
I4605
sV\u8787
I6778
sV\u6406
I5278
sV\u9d8b
I5020
sV\u620a
I6694
sV\u6f97
I1379
sV\u8918
I7701
sV\u659b
I2491
sV\u871c
I2262
sV\u5e22
I7484
sV\u5426
I1855
sV\u522a
I4386
sV\u8ead
I2953
sV\u6f2c
I3729
sV\u84b1
I5974
sV\u5fb7
I1042
sV\u55bb
I4684
sV\u773c
I174
sV\u6cc1
I2554
sV\u8e42
I6483
sV\u8446
I1279
sV\u60c9
I5811
sV\u5f4c
I2912
sV\u5550
I8885
sV\u5354
I4796
sV\u6a5a
I9058
sV\u83df
I3470
sV\u5ce1
I3617
sV\u7e62
I7399
sV\u50e9
I8306
sV\u6deb
I1414
sV\u6bef
I7861
sV\u8570
I8820
sV\u5a7a
I4285
sV\u977c
I8441
sV\u6b84
I3786
sV\u8009
I7964
sV\u7f8c
I3964
sV\u7590
I8282
sV\u5113
I8807
sV\u9215
I7129
sV\u8a9a
I4457
sV\u661d
I6144
sS'\x9e'
I8015
sV\u7c21
I2166
sV\u5da0
I2195
sV\u5ba4
I1384
sV\u7029
I3360
sV\u51a8
I6900
sV\u4e2d
I158
sV\u9f37
I6925
sV\u7aba
I2147
sV\u563d
I7583
sV\u6747
I8844
sV\u81c8
I5769
sV\u7b4f
I6092
sV\u58ce
I2983
sV\u95d0
I4525
sV\u4f57
I2158
sV\u8859
I2937
sV\u69d8
I7465
sV\u67dc
I6110
sV\u7de0
I3614
sV\u9a65
I1913
sV\u7be4
I2636
sV\u9069
I1540
sV\u6275
I9247
sV\u9cf6
I291
sV\u59f8
I7348
sV\u9afa
I8560
sV\u767d
I191
sV\u57fc
I6675
sV\u90fe
I8453
sV\u4f81
I9248
sV\u9e8b
I354
sV\u610a
I3732
sV\u9293
I3915
sV\u7512
I8501
sV\u5195
I1400
sV\u6c97
I9242
sV\u8a18
I953
sV\u609f
I96
sV\u7aa3
I4679
sV\u5d22
I3831
sV\u9824
I1174
sV\u74a7
I2046
sV\u4eab
I3460
sV\u512a
I1820
sV\u5cb7
I3744
sV\u7a38
I3550
sV\u56bb
I7552
sV\u95bd
I2807
sV\u6fc1
I1258
sV\u63c9
I1779
sV\u814a
I6712
sV\u7dcd
I8478
sV\u9b4e
I5785
sV\u77d1
I7026
sV\u5650
I7569
sV\u71d5
I617
sV\u86db
I5277
sV\u695a
I499
sV\u5fe1
I7932
sV\u9ae3
I4793
sV\u7d62
I2396
sV\u59e5
I6761
sV\u7766
I1925
sV\u53e9
I2529
sV\u6eeb
I7096
sV\u8c6c
I1740
sV\u62f3
I1784
sV\u8074
I7467
sV\u76fb
I3268
sV\u947c
I9145
sV\u8309
I5757
sV\u9711
I2235
sV\u7690
I9191
sV\u5213
I6448
sV\u651d
I4034
sV\u839e
I2369
sV\u5ea0
I3833
sV\u9da2
I5019
sV\u97a6
I5196
sV\u7329
I3039
sV\u91aa
I274
sV\u882f
I7104
sV\u6bae
I7943
sV\u8233
I2054
sV\u65b2
I1501
sV\u9c37
I8592
sV\u7fb6
I2978
sV\u963b
I2151
sV\u79ba
I2185
sV\u903f
I9612
sV\u8ec0
I1234
sV\u6447
I1903
sV\u7e4b
I5360
sV\u5bce
I9661
sV\u7253
I5436
sV\u55d2
I4811
sV\u8b59
I4439
sV\u855d
I4324
sV\u9f61
I2451
sV\u5a63
I4339
sV\u78e4
I9676
sV\u72e8
I6883
sV\u6771
I185
sS'\xa9'
I7984
sV\u6175
I614
sV\u757d
I7729
sV\u4e81
I8477
sV\u6c02
I6754
sV\u8587
I146
sV\u6606
I1325
sV\u600a
I6429
sV\u5c8d
I9102
sV\u7a0e
I2756
sV\u4e16
I313
sV\u9f20
I888
sV\u9924
I7913
sV\u4fab
I9648
sV\u502a
I4046
sV\u86b1
I8322
sS'\xb5'
I8023
sV\u6134
I2999
sV\u5db7
I2575
sV\u9ab9
I7525
sV\u6ec1
I5088
sV\u4f40
I8074
sV\u8646
I8118
sV\u62c9
I3062
sV\u804a
I154
sV\u7ccd
I1675
sV\u5d4c
I5337
sV\u9a4e
I6764
sV\u5750
I72
sV\u9452
I596
sV\u5154
I728
sV\u8dd7
I6340
sV\u6e56
I1728
sV\u87db
I6773
sV\ue85a
I8345
sV\u81df
I7423
sV\u625e
I1618
sV\u5ee1
I2109
sV\u52e9
I4685
sV\u6feb
I3947
sV\u8d6c
I3063
sV\u63f3
I9556
sV\u8174
I3997
sV\u5e76
I2619
sV\u77fb
I4020
sV\u71ff
I5401
sV\u8e01
I9603
sV\u6f80
I2472
sV\u8805
I709
sV\u8209
I1334
sV\u6388
I3589
sV\u5f0b
I4970
sV\u9c0d
I7899
sV\u7d8c
I4053
sV\u590f
I1281
sV\u9015
I534
sV\u6a19
I1805
sV\u7e21
I9488
sV\u5fa0
I3390
sV\u7825
I4019
sV\u59a4
I7671
sV\u53a8
I237
sV\u90aa
I1705
sV\u6aae
I7243
sV\u8333
I6825
sV\u64b2
I708
sV\u9d37
I8916
sV\u78ba
I3939
sV\u543d
I7090
sV\u6b43
I5483
sV\u6547
I7557
sV\u7f4b
I6312
sV\u794f
I8778
sV\u6bd8
I5659
sV\u65dc
I7706
sV\u7fe0
I634
sV\u5b63
I1323
sV\u9865
I4155
sV\u79e4
I5106
sV\u6c6d
I4754
sV\u8aee
I5639
sV\u6671
I8060
sV\u6075
I9152
sV\u9ef6
I8406
sV\u7a79
I3259
sV\u5bf8
I1716
sV\u98fa
I6533
sV\u747d
I8422
sV\u5785
I5053
sV\u808b
I2063
sV\u650e
I9597
sV\u8c93
I6835
sV\u6b12
I3878
sV\u7297
I7789
sV\u9418
I857
sV\u8624
I5065
sV\u722c
I5695
sV\u99b1
I7165
sV\u7830
I6725
sV\u5cb3
I4427
sV\u7e34
I5802
sV\u85b9
I9251
sV\u71c1
I3697
sV\u7dc9
I7926
sV\u5c48
I1870
sV\u9f4a
I1897
sV\u854e
I7193
sV\u6fd5
I1250
sV\u92d7
I6890
sV\u7156
I220
sV\u98db
I60
sV\u775a
I6188
sV\u5bdd
I4330
sV\u9edf
I7152
sV\u7d5e
I6400
sV\u6362
I8505
sV\u8ae7
I2557
sV\u6966
I6022
sV\u9870
I3026
sV\u7cf3
I8351
sV\u62f7
I9505
sV\u68fb
I7878
sV\u8a7c
I5693
sV\u6eff
I286
sV\u5403
I6192
sV\u9705
I4730
sV\u7684
I1707
sV\u9d09
I486
sV\u8f15
I75
sV\u6e94
I8319
sV\u9196
I4622
sV\u979a
I5530
sV\u6121
I9587
sV\u83a2
I4170
sV\u89a6
I2193
sV\u6d29
I4094
sV\u532d
I4899
sV\u962f
I8528
sV\u5931
I1018
sV\u5f35
I1673
sV\u8237
I3204
sV\u61b6
I859
sV\u883b
I3490
sV\u6dbe
I8678
sV\u53c2
I5456
sV\u96c4
I812
sV\u7a47
I9476
sV\u59c6
I3804
sV\u664f
I198
sV\u8ed4
I5715
sV\u5257
I2367
sV\u74d8
I9267
sV\u5e5f
I4631
sV\u60e0
I1474
sV\u8765
I6411
sV\u8d69
I8527
sV\u6ce8
I1756
sV\u7f75
I4691
sV\u87fa
I6885
sV\u5081
I7414
sV\u9583
I4825
sV\u5685
I6508
sV\u7806
I5299
sV\u818b
I6535
sV\u7e0a
I6733
sV\u4e95
I135
sV\u7397
I7947
sV\u5016
I5008
sV\u4e2a
I6741
sV\u732c
I6130
sV\u9eb5
I4554
sV\u84b9
I5725
sV\u6538
I4080
sV\u4fbf
I244
sV\u5140
I1873
sV\u9846
I2269
sV\u7cc9
I5213
sV\u62cd
I3974
sV\u8a52
I4484
sV\u6ed5
I3172
sV\u4f54
I6923
sV\u93d7
I3944
sV\u99db
I2667
sV\u7c5e
I5203
sV\u6262
I8626
sV\u936c
I7307
sV\u77ef
I2282
sV\u63f7
I3533
sV\u9001
I463
sV\u7d88
I3913
sV\u820d
I148
sV\u638c
I1696
sV\u8811
I9628
sV\u5598
I4601
sV\u5b9c
I1555
sV\u6021
I1751
sV\u6625
I164
sV\u912b
I6364
sV\u8eaa
I7204
sV\u5831
I183
sV\u8337
I8292
sV\u60b6
I2497
sV\u893b
I6940
sV\u8f3f
I1968
sV\u6cbe
I1034
sV\u91c0
I2573
sV\u97c4
I8372
sV\u7b47
I4539
sV\u614b
I2287
sV\u5eca
I1415
sV\u83cc
I4901
sV\u674f
I3365
sV\u8fd4
I2378
sV\u5357
I316
sV\u75d8
I7884
sV\u8665
I8464
sV\u67e4
I4677
sV\u6de8
I3142
sV\u53ec
I2804
sV\u7871
I9233
sV\u9af2
I9515
sV\u6479
I3464
sV\u86fa
I4912
sV\u8cfe
I6100
sV\u9683
I8803
sV\u7b06
I9057
sV\u5f89
I2998
sV\u828b
I4969
sV\u7d0a
I5767
sV\u848f
I9256
sV\u8e93
I7080
sV\u6912
I2089
sV\u5316
I400
sV\u7c9f
I1768
sV\u8220
I5281
sV\u68a7
I2190
sV\u52ab
I4831
sV\u91ad
I8068
sV\u702c
I3202
sV\u5eb3
I5718
sV\u9db5
I7404
sV\u7c34
I3574
sV\u89bd
I2622
sV\u683c
I2174
sV\u75c5
I173
sV\u5e48
I8111
sV\u9d4a
I9387
sV\u61cd
I9258
sV\u874e
I4932
sV\u90d7
I5945
sV\u755a
I4526
sV\u59dd
I5576
sV\u86e3
I7501
sV\u6162
I2711
sV\u6b66
I2102
sV\u6d6a
I1470
sV\u906c
I8604
sV\u60f7
I6936
sV\u8678
I9381
sV\u6afb
I5368
sV\u4f7e
I5367
sV\u7280
I2205
sV\u5807
I5913
sV\u9f09
I5077
sV\u7e88
I2848
sV\u608c
I4926
sV\u6a90
I3990
sV\u6c94
I3406
sV\u9396
I4400
sV\u7719
I6939
sV\u5698
I7854
sV\u589c
I2555
sV\u9f9e
I8728
sV\u81a2
I9517
sV\u6f29
I5225
sV\u4ea8
I3981
sV\u8a3b
I7254
sV\u8c3f
I1947
sV\u7643
I7669
sV\u51c2
I8194
sV\u5bc6
I714
sV\u9ec8
I8116
sV\u624b
I1004
sV\u80cc
I1336
sV\u644f
I8583
sV\u8ad0
I8751
sV\u6e53
I4886
sV\u8cd4
I9213
sV\u9759
I1867
sV\u50ec
I8183
sV\u97ee
I7326
sV\u5af0
I7564
sV\u5cf4
I3232
sV\u83f6
I7063
sV\u85fa
I3592
sV\u8ffe
I8686
sV\u7a06
I9463
sV\u838b
I9337
sV\u858f
I5402
sV\u660e
I444
sV\u6812
I9262
sV\u5216
I1246
sV\u541a
I4169
sS'\xef'
I7994
sV\u69a7
I6234
sV\u53ab
I7871
sV\u86b9
I8957
sV\u88bd
I6383
sV\u72c1
I7597
sV\u5340
I2117
sV\u9042
I2416
sV\u5544
I127
sV\u9a46
I8210
sV\u5f48
I1750
sV\u864e
I264
sV\u6ad1
I6817
sV\u8852
I3357
sV\u6cd5
I1595
sV\u7256
I2456
sV\u745a
I2356
sV\u58dd
I7681
sV\u9ddf
I5160
sV\u7e5e
I1467
sV\u87e3
I1546
sV\u6062
I3980
sV\u89e7
I3789
sV\u6a66
I5634
sV\u73eb
I8951
sV\u6c6a
I2177
sV\u916c
I1636
sV\u75ef
I8315
sV\u7ff3
I2267
sV\u5872
I7818
sV\u9d74
I8247
sV\u61f7
I105
sV\u8778
I687
sV\u897c
I9513
sV\u4e7e
I895
sV\u5703
I686
sV\u7584
I6552
sV\u7f88
I491
sV\u8a11
I9495
sV\u6d94
I5362
sV\u9296
I4716
sV\u7619
I8548
sV\u9e9e
I6767
sV\u6221
I5797
sV\u80a2
I4711
sV\u6425
I6231
sV\u8aa6
I2640
sV\u6e29
I1844
sV\u932b
I103
sV\u8caa
I381
sV\u502d
I8156
sV\u76ae
I1204
sV\u5a31
I3020
sV\u5c35
I7844
sV\u62b6
I6083
sV\u50c2
I5234
sV\u7947
I2665
sV\u634b
I6456
sV\u654f
I1908
sV\u5157
I9470
sV\u5b5b
I7366
sV\u63e0
I1862
sV\u8e69
I7764
sV\u5bf0
I3720
sV\u98f2
I372
sV\u5df4
I2252
sV\u82f6
I6747
sV\u6679
I7692
sV\u84fa
I4247
sV\u8efe
I5779
sV\u5581
I6059
sV\u9083
I1314
sV\u7702
I8289
sV\u9e87
I8758
sV\u7d06
I2184
sV\u5989
I8253
sV\u848b
I4315
sV\u7b0a
I5663
sV\u610e
I3645
sV\u9e1c
I6266
sV\u7a9f
I2769
sV\u25a1
I3318
sV\u60a3
I2115
sV\u6ea7
I6315
sV\u8828
I6137
sV\u54ab
I2879
sV\u97ad
I1640
sV\u9db1
I2786
sV\u7c30
I7324
sV\u58b3
I1020
sV\u6e3c
I6854
sV\u75c1
I6844
sV\u5440
I5097
sV\u9742
I1666
sV\u5244
I6157
sV\u79c9
I863
sV\u5848
I1586
sV\u67cd
I8648
sV\u814e
I6273
sV\u6dd1
I1053
sV\u8f52
I9492
sV\u735a
I8421
sV\u5fdd
I2597
sV\u9adf
I8524
sV\u795e
I550
sS'\xe3'
I8006
sV\u6d66
I2489
sV\u966c
I3467
sV\u516e
I4810
sV\u78f3
I7592
sV\u66f7
I2572
sV\u8e7c
I9116
sV\u7480
I2401
sV\u7284
I7881
sV\u9909
I4086
sV\u870d
I5033
sV\u668c
I2785
sV\u6c90
I2405
sV\u7119
I6251
sV\u5098
I6070
sV\u939a
I5652
sV\u5e9c
I1852
sV\u999e
I8423
sV\u6521
I9038
sV\u87a2
I807
sV\u8da6
I2131
sV\u942b
I2625
sV\u572d
I3238
sV\u922f
I7477
sV\u5d31
I9436
sV\u9833
I3407
sV\u7fb2
I3399
sV\u65b6
I9615
sV\u63ba
I9690
sV\u4f3d
I5948
sV\u8a3f
I9019
sV\u69be
I7929
sV\u7043
I5194
sV\u57c2
I7141
sV\u7e47
I1604
sV\u98c8
I3193
sV\u6853
I4203
sV\u8ad4
I9347
sV\u70d8
I4636
sV\u8561
I6595
sV\u64e0
I3949
sV\u68e8
I5142
sV\u7d71
I5143
sV\u5cf0
I1512
sV\u7b75
I2418
sV\u9183
I6679
sV\u7602
I9406
sV\u5889
I5817
sV\u858b
I8449
sV\u7a0a
I2540
sV\u600e
I7235
sV\u8993
I4540
sV\u9118
I9136
sV\u9f1c
I9100
sV\u581e
I4694
sV\u6fa7
I6407
sV\u55ab
I1676
sV\u7d30
I19
sV\u59b3
I7220
sV\u7b34
I5156
sS'\xb9'
I8005
sV\u6138
I5434
sV\u6f3c
I8430
sV\u9642
I287
sV\u78c9
I9566
sV\u5948
I1182
sV\u9a4a
I3834
sV\u5edd
I6335
sV\u785e
I9367
sV\u81e3
I972
sV\u6662
I8815
sV\u9d70
I1687
sV\u5e72
I1858
sV\u9b74
I4206
sV\u67f7
I9037
sV\u8178
I1464
sV\u6dfb
I1780
sV\u6bff
I4440
sV\u7384
I106
sV\u5f07
I9378
sV\u7988
I7652
sV\u678c
I3903
sV\u8a15
I5052
sV\u5198
I8676
sV\u929a
I5826
sV\u7e1d
I4676
sV\u5f9c
I2997
sV\u6829
I5692
sV\u8aaa
I1534
sV\u932f
I2014
sV\u70ae
I272
sV\u5c31
I1079
sV\u9933
I4117
sV\u5a35
I3766
sV\u8737
I6874
sV\u64b6
I8991
sV\u62ba
I6987
sV\u8b3f
I8671
sV\u56c2
I2071
sV\u93c4
I4624
sV\u7f47
I2825
sV\u634f
I5657
sV\u8dd0
I9377
sV\u6953
I2312
sV\u9059
I829
sV\u5b5f
I2515
sV\u8461
I8170
sV\u65e0
I6006
sV\u8869
I8688
sV\u69e8
I7122
sV\u766d
I1813
sV\u9ef2
I6796
sV\u84f6
I9043
sV\u88fe
I1035
sV\u5b89
I140
sV\u868b
I3112
sV\u808f
I6177
sV\u4f91
I2707
sV\u8a93
I4582
sV\u6d12
I1190
sV\u5716
I2123
sV\u7e9b
I5107
sV\u511a
I7890
sV\u8024
I9629
sV\u95ad
I136
sV\u742c
I3806
sV\u50af
I5152
sV\u7e30
I7545
sV\u99b5
I9076
sV\u7834
I852
sV\u6238
I8741
sV\u5640
I4628
sV\u5044
I8502
sV\u7bc9
I799
sV\u65cd
I6948
sV\u53d9
I2359
sV\u9edb
I1215
sV\u5ddd
I294
sV\u98df
I145
sV\u7b5e
I7836
sV\u82e3
I7212
sV\u6562
I871
sV\u6f66
I591
sV\u696a
I8532
sV\u536e
I6125
sV\u5d72
I4474
sV\u9874
I3725
sV\u64f7
I2303
sV\u8278
I8852
sV\u6efb
I7067
sV\u5203
I1678
sV\u9105
I7598
sV\u5c07
I367
sV\u9b09
I6807
sV\u7a88
I2384
sV\u850d
I8498
sV\u6e90
I1743
sV\u80bb
I8538
sV\u8915
I6415
sV\u6894
I8544
sV\u5298
I7863
sV\u7d1d
I8669
sV\u9b9e
I7698
sV\u8fa6
I2626
sV\u89aa
I353
sV\u5f31
I3502
sV\u7db2
I1582
sV\u8437
I5919
sV\u67b6
I1916
sV\u61ba
I6322
sV\u96c0
I536
sV\u90c4
I6193
sV\u664b
I3721
sV\u59ca
I4197
sV\u88d4
I1118
sV\u72d8
I8698
sV\u5e5b
I8259
sV\u9d5d
I4129
sV\u7cdc
I346
sV\u8761
I8377
sV\u66e0
I1335
sV\u8165
I2977
sV\u8b69
I9671
sV\u6ae8
I5171
sV\u9df2
I5275
sV\u87f6
I8989
sV\u81fa
I1062
sV\u5085
I2317
sV\u7e06
I7825
sV\u818f
I1936
sV\u620e
I1075
sV\u4e91
I1144
sV\u8b93
I1646
sV\u5616
I5544
sV\u9318
I3189
sV\u501a
I80
sV\u63a3
I3893
sV\u8124
I7422
sV\u4e26
I2126
sV\u8b28
I2172
sV\u752c
I6115
sV\u5bb3
I2743
sV\u7934
I2475
sV\u82b9
I4470
sV\u4fbb
I5448
sV\u8cbd
I1945
sV\u6d3c
I6021
sV\u5740
I4150
sV\u5144
I2320
sV\u64cd
I2593
sV\u824e
I427
sV\u6ed1
I878
sV\u4f50
I2704
sV\u68d5
I7120
sV\u95d7
I2774
sV\u7656
I2417
sV\u52d9
I3050
sV\u5cdd
I8825
sV\u99df
I2662
sV\u83e3
I8214
sV\u8de7
I4364
sV\u526e
I6700
sV\u9f70
I9223
sV\u7bf3
I5407
sV\u69ff
I5046
sV\u7780
I4873
sV\u9005
I2722
sV\u7184
I4620
sV\u5d07
I1012
sV\u840d
I670
sV\u658c
I6602
sV\u8815
I5395
sV\u6994
I3170
sV\u5398
I7713
sV\u6621
I7471
sV\u84a2
I7823
sV\u6025
I190
sV\u972b
I7941
sV\u88aa
I2108
sV\u542d
I3356
sV\u912f
I9385
sV\u9b33
I9641
sV\u7cb2
I1841
sV\u5835
I2484
sV\u8f3b
I3587
sV\u6abe
I8494
sV\u97c0
I8587
sV\u7343
I7469
sV\u54c2
I6204
sV\u91c4
I9503
sV\u7d47
I7506
sV\u9bc8
I5095
sV\u58ca
I3659
sV\u5557
I4012
sV\u5f5b
I8349
sV\u7ddc
I5013
sV\u8661
I6453
sV\u8a69
I575
sV\u6be8
I7167
sV\u746d
I6321
sV\u9cf2
I6040
sV\u6279
I5205
sV\u8afe
I2931
sV\u5981
I4941
sV\u5f85
I837
sV\u5589
I1952
sV\u888b
I6965
sV\u770a
I6937
sV\u6d0e
I5658
sV\u8493
I5493
sV\u7a97
I510
sV\u5916
I107
sV\u921c
I9497
sV\u8820
I8041
sV\u9bad
I5412
sV\u7a2c
I9426
sV\u91b1
I4140
sV\u7030
I3971
sV\u54b3
I2027
sV\u97b5
I6279
sV\u7634
I2819
sV\u6c38
I832
sV\u83bd
I2036
sV\u79c1
I2234
sV\u9b42
I1460
sV\u7fc5
I4257
sV\u5e44
I4808
sV\u9146
I5285
sV\u5448
I3376
sV\u6bcd
I1048
sV\u8352
I410
sV\u7956
I314
sV\u90db
I5924
sV\u755e
I8537
sV\u8ce3
I2501
sV\u6b62
I1287
sV\u82e7
I6281
sV\u6166
I9220
sV\u676a
I292
sV\u5372
I9524
sV\u9674
I8168
sV\u8c78
I4103
sV\u60fb
I2820
sV\u4f7a
I5935
sV\u827c
I8746
sV\u66ff
I2811
sV\u9901
I3931
sV\u5c03
I4333
sV\u5207
I2643
sV\u7488
I7140
sV\u4e0f
I8471
sV\u8715
I3218
sV\u9996
I640
sV\u7d19
I4
sV\u731d
I4680
sV\u6f25
I5247
sV\u4ea4
I299
sV\u982b
I6241
sV\u5b2d
I5521
sV\u7dae
I5899
sV\u5131
I8033
sV\u73b2
I3440
sV\u803b
I3595
sV\u863f
I677
sV\u65be
I3005
sV\u98c0
I3451
sV\u7c43
I1967
sV\u5bc2
I401
sV\u9ec4
I188
sV\u7247
I432
sV\u51c6
I7482
sV\u684b
I8568
sV\u8acc
I7380
sV\u6e4f
I8415
sV\u80d0
I7278
sV\u9d59
I6951
sV\u8961
I9189
sV\u68e0
I2982
sV\u8569
I2877
sV\u7b6d
I5449
sV\u9dee
I9519
sV\u50f0
I5928
sV\u89f6
I6640
sV\u6d79
I4058
sV\u8ffa
I5176
sV\u637d
I8711
sV\u5881
I5475
sV\u9d83
I8659
sV\u7a02
I6422
sV\u7006
I3527
sV\u898b
I671
sV\u6c0e
I6704
sV\u6212
I1642
sV\u7b97
I2021
sV\u719b
I6955
sV\u5e1a
I2298
sV\u541e
I1704
sV\u8920
I7908
sV\u8f24
I3826
sV\u63a7
I5540
sV\u9aad
I3269
sV\u7b2c
I2257
sV\u5faf
I6262
sV\u90b1
I5941
sV\u7130
I3639
sV\u7734
I6746
sV\u6d38
I6025
sV\u82bd
I1622
sV\u633c
I6117
sV\u78c1
I5481
sV\u9a42
I4437
sV\u74c9
I7406
sV\u964a
I7176
sV\u8c4e
I5201
sV\u60d1
I4626
sV\u7856
I4185
sV\u5cd9
I2872
sV\u7e5a
I4803
sV\u52dd
I1052
sV\u745e
I1764
sV\u8de3
I4925
sV\u6a62
I7972
sV\u4ee5
I1635
sV\u79eb
I2908
sV\u7fef
I3354
sV\u5272
I1285
sV\u9774
I1708
sV\u837c
I6450
sV\u67ff
I1453
sV\u7980
I3925
sV\u7588
I8865
sV\u4f0f
I1276
sV\u6190
I861
sV\u9e9a
I9105
sV\u721d
I5850
sV\u6821
I3583
sV\u6e25
I3824
sV\u80a6
I7867
sV\u992b
I7877
sV\u86aa
I6314
sV\u5a2d
I9299
sV\u9f2f
I2093
sV\u7cae
I9303
sV\u5635
I5144
sV\u8b37
I7623
sV\u6eba
I1747
sV\u873f
I4312
sV\u64be
I5905
sV\u7d43
I2961
sV\u5ac2
I6559
sV\u95c8
I3909
sV\u56ca
I2260
sV\u6f4f
I6225
sV\u81d0
I8798
sV\u5b57
I695
sV\u7dd8
I2669
sV\u8861
I540
sV\u6fe4
I1715
sV\u8469
I2602
sV\u65e8
I2305
sV\u7a6d
I8200
sV\u5bec
I595
sV\u51f0
I1120
sV\u57f4
I6430
sV\u88f6
I6618
sV\u6c79
I7009
sV\u8efa
I2143
sV\u5b81
I2697
sV\u5d85
I7370
sV\u9087
I1826
sV\u8693
I683
sV\u6112
I3501
sV\u7897
I5608
sV\u5b16
I5824
sV\u9e18
I6639
sV\u729b
I6386
sV\u5d1a
I4231
sV\u749f
I6916
sV\u571e
I5671
sV\u99ad
I2917
sV\u5caf
I9455
sV\u7230
I5995
sV\u56b3
I9023
sV\u7434
I71
sV\u6e38
I1274
sV\u81bd
I3653
sV\u7bc1
I1458
sV\u5a40
I5169
sV\u77c9
I8261
sV\u69cd
I4855
sV\u8f4e
I7802
sV\u63d1
I8699
sV\u8152
I5996
sV\u7b56
I1815
sV\u5fd9
I2255
sV\u51dd
I262
sV\u775e
I2996
sV\u6962
I8653
sS'\xe7'
I7992
sV\u7cef
I5596
sV\u9474
I8225
sV\u807c
I5346
sV\u64ff
I4087
sV\u7a80
I2821
sV\u5e03
I760
sV\u7688
I7493
sV\u8515
I4650
sV\u9d9a
I3178
sV\u509c
I6106
sV\u979e
I5859
sV\u6b21
I1883
sV\u89a2
I7264
sV\u6d25
I599
sV\u9a2b
I4800
sV\u85aa
I2391
sV\u592d
I2994
sV\u7fae
I4226
sV\u5331
I6005
sV\u5535
I9560
sV\u9ac0
I4382
sV\u7047
I9396
sV\u6a4b
I481
sV\u88cc
I6184
sV\u6c4f
I3522
sV\u4fce
I341
sV\u82d0
I8346
sV\u5857
I1580
sV\u525b
I3106
sV\u70dc
I6120
sV\u66e8
I7580
sV\u796d
I964
sV\u58ec
I5124
sV\u7371
I9003
sV\u52f0
I9153
sV\u617d
I9479
sV\u87fe
I4707
sV\u7802
I4977
sV\u5c85
I9682
sV\u9187
I828
sV\u7206
I5406
sV\u8b8b
I6651
sV\u740a
I6105
sV\u8793
I8843
sV\u6012
I2135
sV\u5a16
I8999
sV\u9f18
I8243
sV\u5c1a
I453
sV\u911c
I5460
sV\u8b20
I2779
sV\u6fa3
I6016
sV\u61a7
I3503
sV\u8728
I6001
sV\u5bab
I1885
sV\u98ad
I3669
sV\u792c
I7234
sV\u7330
I7387
sV\u6f38
I2925
sS'\xbd'
I8026
sV\u7ac1
I6348
sV\u5b40
I7447
sV\u7cc5
I5012
sV\u9246
I6650
sV\u944a
I1717
sV\u62d1
I8890
sV\u8052
I3880
sV\u64d5
I8723
sV\u50dd
I8616
sV\u95df
I7732
sV\u81e7
I4618
sV\u7def
I3719
sV\u5e6e
I7910
sV\u9370
I8868
sV\u77f3
I335
sV\u5072
I6384
sV\u69f7
I9293
sV\u9a01
I2530
sV\u5f03
I5914
sV\u9c05
I9334
sV\u7d84
I9656
sV\u5107
I7110
sV\u880d
I9579
sV\u6390
I6095
sV\u6594
I8543
sV\u5f98
I2993
sV\u701d
I3065
sV\u6a21
I2230
sV\u88a2
I2553
sV\u6629
I7343
sV\u9b2b
I7909
sV\u582d
I8755
sV\u9d2f
I7114
sV\u70b2
I7070
sV\u5435
I9373
sV\u8937
I7047
sV\u4e39
I939
sV\u853f
I9203
sV\u66be
I4821
sV\u9bc0
I6572
sV\u7f43
I9310
sV\u9dc4
I2590
sV\u7147
I6145
sV\u97c8
I6690
sV\u6b4b
I9318
sV\u6753
I4791
sV\u905d
I5838
sV\u555f
I1392
sV\u8a61
I4288
sV\u6de4
I5920
sV\u8669
I5188
sV\u59ec
I3663
sV\u9eee
I6163
sV\u53f0
I3801
sV\u90f2
I7916
sV\u8af6
I7314
sV\u4ff8
I4720
sV\u8cfa
I8051
sV\u86fe
I4351
sV\u5d81
I6219
sV\u5b85
I1305
sV\u7506
I3166
sV\u5189
I3088
sV\u730a
I4133
sV\u4f8d
I2104
sV\u690e
I2486
sV\u8093
I4904
sV\u6712
I9131
sV\u5d16
I82
sV\u9818
I2064
sV\u961c
I3257
sV\u8028
I4866
sV\u5cab
I1918
sV\u5aaf
I8054
sV\u95b1
I2051
sV\u7430
I3807
sV\u50b3
I182
sV\u4eb7
I8086
sV\u6838
I2270
sV\u87bd
I6907
sV\u5c40
I2702
sV\u71c9
I8274
sV\u5048
I4686
sV\u934a
I3190
sV\u63d5
I9504
sV\u7d56
I8044
sV\u59d9
I8219
sV\u92df
I3926
sV\u715e
I6864
sV\u6f62
I590
sV\u6566
I1041
sV\u7aef
I924
sV\u596e
I3017
sV\u9470
I4701
sV\u6ef7
I8826
sV\u64fb
I5661
sV\u62ff
I8489
sV\u9b05
I7049
sV\u7a84
I2924
sV\u9109
I40
sV\u8511
I2838
sV\u6490
I2481
sV\u6294
I3852
sV\u9d96
I5528
sV\u7919
I1991
sV\u9b9a
I6676
sV\u771d
I9422
sV\u919e
I7393
sV\u85a6
I750
sV\u83aa
I3315
sV\u5f2d
I2072
sV\u79ae
I864
sV\u5531
I1899
sV\u5335
I3078
sV\u6db6
I8296
sV\u6bba
I1374
sV\u61be
I5182
sV\u7843
I7873
sV\u9ac4
I4044
sV\u7647
I9404
sV\u90c8
I7664
sV\u53ca
I1583
sV\u8ecc
I2120
sV\u84d0
I3483
sV\u6053
I6689
sV\u82d4
I673
sV\u5e57
I5424
sV\u9959
I6024
sV\u76dc
I3367
sV\u525f
I8645
sV\u6ce0
I1959
sV\u60e8
I1801
sV\u5eec
I1507
sV\u99ee
I5246
sV\u97f2
I2478
sV\u7375
I349
sV\u6979
I802
sV\u81fe
I3334
sV\u7406
I97
sV\u8d8b
I8171
sV\u4e8d
I6935
sV\u8193
I3713
sV\u5c16
I4812
sV\u9918
I525
sV\u971c
I131
sV\u67a7
I8565
sV\u5dab
I8677
sV\u7530
I289
sV\u51b3
I2759
sV\u7334
I3619
sV\u6938
I6078
sV\u7cc1
I9216
sV\u7ac5
I2535
sV\u5b44
I8283
sV\u5148
I53
sV\u6ecd
I9440
sV\u4f4c
I9673
sV\u884e
I6565
sV\u8652
I7586
sV\u62d5
I6721
sV\u7c56
I2905
sV\u58d9
I6123
sV\u56dd
I9499
sV\u93df
I5248
sV\u705e
I5936
sV\u89e3
I117
sV\u6e62
I6049
sV\u9f6c
I2308
sV\u5672
I6870
sV\u65fb
I2944
sV\u7d80
I7158
sV\u9a05
I5438
sV\u7b84
I9103
sV\u7188
I3044
sV\u6f8c
I5183
sV\u8411
I7539
sV\u6590
I3254
sV\u761d
I4384
sV\u579c
I9435
sV\u6029
I5675
sV\u5e2d
I1454
sV\u9b2f
I4492
sV\u5235
I7879
sV\u853b
I7163
sV\u60be
I8536
sV\u9dc0
I5607
sV\u5ec2
I4914
sV\u7747
I2067
sV\u54c6
I6701
sV\u85d0
I2343
sV\u6153
I8657
sV\u83d4
I7430
sV\u5f57
I5185
sV\u9859
I5550
sV\u79d8
I787
sV\u965d
I399
sV\u77dc
I2954
sV\u8c61
I950
sV\u7e6d
I2629
sV\u7471
I4488
sV\u96f2
I88
sV\u6879
I5786
sV\u8afa
I5447
sV\u80fe
I5535
sV\u5f81
I778
sV\u7d02
I7394
sV\u8e8b
I2435
sV\u6b0e
I7086
sV\u7c97
I1405
sV\u9a18
I9081
sV\u769b
I4480
sV\u591a
I172
sV\u709f
I8172
sV\u8e20
I5129
sV\u6aa3
I637
sV\u5eab
I1092
sV\u58af
I4990
sV\u91b5
I7315
sV\u6a38
I1431
sV\u7fc1
I520
sV\u9d42
I6960
sV\u79c5
I8693
sV\u9746
I7704
sV\u73c9
I4108
sV\u914a
I3977
sV\u8b4e
I4412
sV\u67d1
I4392
sV\u8552
I8740
sV\u61d5
I9478
sV\u96db
I668
sV\u795a
I4098
sV\u55dd
I9319
sV\u90df
I5584
sV\u4fe1
I952
sV\u84e7
I3450
sV\u78ef
I612
sV\u9670
I115
sV\u9074
I8302
sV\u4f76
I7554
sV\u5a03
I8159
sV\u9905
I5454
sV\u4e0b
I625
sV\u8d0d
I4672
sV\u6c8c
I4360
sV\u8711
I6216
sV\u6690
I9366
sV\u8115
I9194
sV\u6094
I3735
sV\u7b19
I1745
sV\u549c
I8125
sV\u939e
I8080
sV\u75b2
I710
sV\u5135
I6628
sV\u8c37
I203
sV\u6fb6
I3627
sV\u803f
I407
sV\u63be
I3982
sV\u5dc2
I6947
sV\u98c4
I500
sV\u7447
I7700
sV\u57c6
I5834
sV\u92c8
I8460
sV\u51ca
I6268
sV\u6253
I1713
sV\u80d4
I6863
sV\u7ad8
I9574
sV\u74dc
I735
sV\u8f61
I3304
sV\u8965
I9169
sV\u5cec
I7741
sV\u56f0
I2333
sV\u50f4
I8447
sV\u5885
I2967
sV\u5289
I1714
sV\u898f
I2588
sV\u8393
I721
sV\u6412
I7232
sV\u5e16
I1996
sV\u9b18
I6990
sV\u719f
I729
sV\u8f20
I5157
sV\u6ba3
I8708
sV\u65a7
I2057
sV\u8328
I1997
sV\u7d2c
I4506
sV\u59af
I9423
sV\u96b1
I1515
sV\u90b5
I6045
sV\u8ab9
I5566
sV\u6b38
I5678
sV\u5f40
I4529
sV\u78c5
I6814
sV\u5944
I2817
sV\u72c9
I8376
sV\u5348
I2684
sV\u904a
I515
sV\u8a4e
I2199
sV\u60d5
I2809
sV\u9dd7
I1363
sV\u7e56
I3754
sV\u97db
I7093
sV\u4ee1
I8403
sV\u6666
I1989
sV\u7feb
I4142
sV\u606a
I4980
sV\u9d6c
I1938
sV\u9174
I5574
sV\u6df7
I619
sV\u8b78
I6544
sV\u61ff
I3911
sV\u5b03
I8668
sV\u9805
I3823
sV\u7984
I3145
sV\u5507
I3040
sV\u7388
I8110
sV\u4f0b
I4717
sV\u6d8c
I4356
sV\u6790
I3325
sV\u8015
I302
sV\u6194
I3506
sV\u9e96
I8979
sV\u5b98
I276
sV\u559c
I184
sV\u6e21
I644
sV\u4fa0
I9018
sV\u8ca2
I2160
sV\u6229
I7644
sV\u9f2b
I9342
sV\u80aa
I6389
sV\u5c2d
I8730
sV\u7aae
I114
sV\u5631
I9584
sV\u74b2
I8199
sV\u6eb6
I3773
sV\u873b
I6664
sV\u99c4
I9578
sV\u50ca
I4706
sV\u8dcc
I3031
sV\u7bd8
I6801
sV\u8e61
I8321
sV\u6fe0
I4281
sV\u7c6d
I8229
sV\u9aee
I357
sV\u51f4
I3751
sV\u8ef6
I6683
sV\u647d
I6393
sV\u82fe
I3494
sV\u6483
I5697
sV\u8302
I1085
sV\u6a87
I3687
sV\u8906
I7856
sV\u8f0a
I6480
sV\u9b12
I6255
sV\u5e14
I4715
sV\u6418
I3343
sV\u889b
I7978
sV\u8e9f
I8079
sV\u51a1
I5642
sV\u7020
I8446
sV\u7624
I7508
sV\u7c28
I3573
sV\u63ad
I8726
sV\u822c
I1720
sV\u69b1
I4062
sV\u8830
I9135
sV\u8e34
I3623
sV\u75b9
I6209
sV\u9438
I2513
sV\u6342
I9050
sV\u56cf
I1610
sV\u754e
I4115
sV\u99d1
I3273
sV\u7b52
I1881
sV\u62d7
I5947
sV\u74e3
I2871
sV\u5664
I3927
sV\u5c68
I771
sV\u9f6a
I3945
sV\u9eff
I7213
sV\u6101
I492
sS'\x80'
I8007
sV\u6705
I1964
sV\u558e
I6720
sV\u6196
I8860
sV\u679a
I3970
sV\u8b1d
I751
sV\u9121
I8837
sV\u79a6
I1762
sV\u602b
I3396
sV\u662f
I186
sV\u6c33
I5564
sV\u54b8
I2142
sV\u97ba
I7812
sV\u5abc
I1365
sV\u7e3f
I5861
sV\u66c4
I6742
sV\u904b
I578
sV\u72cc
I7300
sV\u5951
I2358
sV\u78d0
I5345
sV\u9c53
I7036
sV\u5f55
I9563
sV\u7ed4
I6843
sV\u6559
I1149
sV\u84d8
I8625
sV\u6b5d
I6577
sV\u8adc
I4712
sV\u53e2
I3429
sV\u7765
I3493
sV\u59e6
I3791
sV\u5fea
I9308
sV\u5277
I7180
sV\u9b7d
I9175
sS'\xab'
I7993
sV\u5e7f
I8973
sV\u6583
I3602
sV\u8202
I1201
sV\u8806
I5688
sV\u8e0a
I5356
sV\u530c
I9675
sV\u5910
I3487
sV\u7d93
I159
sV\u5f14
I4151
sV\u6518
I393
sV\u8f9f
I2980
sV\u7120
I8706
sV\u95a3
I1835
sV\u56a5
I4372
sV\u7724
I7778
sV\u9ba7
I8378
sV\u5ca9
I3707
sV\u68b1
I8120
sV\u8930
I4724
sV\u6eb5
I8651
sV\u8f34
I3347
sV\u74b9
I9576
sV\u7abd
I4090
sV\u9b3c
I1157
sV\u5c3e
I2004
sV\u51cb
I2443
sV\u6e4a
I2251
sV\u57cf
I5385
sV\u5dd3
I5269
sV\u9ed5
I6705
sV\u8056
I1059
sV\u865a
I1803
sV\u6fdf
I1015
sV\u5160
I7620
sV\u9262
I847
sV\u5764
I1290
sV\u9866
I6684
sV\u5d68
I4818
sV\u87ef
I8599
sV\u6970
I8048
sV\u8df3
I1701
sV\u4ef5
I5336
sV\u6f74
I4396
sV\u93f7
I7365
sV\u7578
I2845
sV\u99fb
I5452
sV\u8180
I9472
sV\u8784
I6707
sV\u4e8a
I4296
sV\u720d
I3640
sV\u938c
I6732
sV\u548e
I4212
sV\u7811
I5761
sV\u5a92
I4536
sV\u7e15
I221
sV\u9f94
I5815
sV\u6096
I6478
sV\u8a1d
I2404
sV\u9021
I2949
sV\u72a2
I391
sV\u9c29
I9129
sV\u612b
I6922
sV\u672f
I8481
sV\u6d33
I3521
sV\u8ab2
I3119
sV\u7337
I3208
sV\u90b6
I8466
sV\u5bbc
I7398
sV\u7f3f
I3875
sV\u8543
I3015
sV\u67c4
I1425
sV\u6dc8
I8045
sV\u914b
I5499
sV\u524d
I178
sV\u73cc
I7689
sV\u5851
I1587
sV\u9d53
I6282
sV\u5e55
I1851
sV\u7fd4
I1893
sV\u52e2
I994
sV\u7665
I9594
sV\u7c69
I4678
sV\u5eea
I4036
sV\u826d
I7843
sV\u8871
I8683
sV\ue829
I9669
sV\u8e75
I9481
sV\u5377
I1849
sV\u5f7f
I3271
sV\u7cfe
I2306
sV\u8102
I1154
sV\u4e08
I2100
sV\u8d0a
I2966
sV\u970e
I5482
sV\u7e93
I1103
sV\u9912
I4469
sV\u5c14
I8340
sS'\x97'
I8016
sS'<START>'
p2
I9696
sV\u96a3
I6972
sV\u7424
I5441
sV\u5fa9
I306
sV\u61ad
I7952
sV\u6bb1
I4404
sV\u6db5
I2802
sV\u5336
I7433
sV\u9638
I9480
sV\u79bd
I902
sV\u983c
I827
sV\u83c1
I6223
sV\u6142
I9490
sV\u6b46
I5149
sV\u91cd
I1113
sV\u774e
I3886
sV\u5ed3
I2467
sV\u9dd5
I8813
sV\u6adb
I698
sV\u855a
I3799
sV\u76e3
I3551
sV\u9162
I2560
sV\u5464
I4714
sV\u78e7
I5066
sV\u5e68
I6845
sV\u82eb
I6295
sV\u9d6a
I8254
sV\u606c
I3505
sV\u6a70
I7551
sV\u6c74
I2735
sV\u90f7
I7624
sV\u57f9
I4349
sV\u7678
I6529
sV\u9afb
I5038
sV\u6301
I851
sV\u6505
I3113
sV\u6f09
I1994
sV\u7b11
I769
sV\u5992
I5737
sV\u7d15
I7643
sV\u6396
I4038
sV\u659a
I4505
sV\u9321
I6202
sV\u71a2
I9642
sV\u5827
I7087
sV\u9f29
I7230
sS'\x9d'
I7982
sV\u7daa
I9087
sV\u642f
I6121
sV\u87ae
I5965
sV\u89b2
I2030
sV\u7a3b
I3326
sV\u7c3f
I3855
sV\u64c4
I3606
sV\u6ec8
I9002
sV\u514d
I2915
sV\u5b51
I5137
sV\u5d55
I8617
sV\u6759
I5916
sV\u695d
I8336
sV\u88dc
I815
sV\u4fde
I3993
sV\u51e2
I8747
sV\u7565
I774
sV\u5be6
I1389
sV\u7f69
I2890
sV\u9ee8
I2582
sV\u67ee
I7930
sV\u4e73
I3104
sV\u69f2
I7239
sV\u5077
I743
sV\u75fa
I7640
sV\u7ffe
I4938
sV\u4f08
I7079
sV\u738b
I937
sV\u510c
I8094
sV\u758f
I477
sV\u7f93
I6856
sV\u9812
I2781
sV\u5d14
I3161
sV\u6718
I6549
sV\u54a5
I9249
sV\u99a7
I8647
sV\u5236
I2119
sV\u9738
I1288
sV\u543a
I5893
sV\u993c
I8143
sV\u6042
I5747
sV\u53cb
I776
sV\u6c4a
I5740
sV\u55cf
I6556
sV\u9ad1
I1638
sV\u8256
I8796
sV\u6bdb
I504
sV\u845a
I3110
sV\u6ddf
I5727
sV\u8e5e
I6944
sV\u5360
I94
sV\u77e3
I1191
sV\u79e7
I4630
sV\u9a66
I7923
sV\u616c
I8204
sV\u6d74
I2773
sV\u56f9
I5229
sV\u58fd
I938
sV\u797c
I7312
sV\u9dff
I6396
sV\u6201
I9477
sV\u8584
I1416
sV\u700d
I5870
sV\u918c
I8273
sV\u568e
I6667
sV\ufa11
I5468
sV\u9b90
I6298
sV\u6296
I5660
sV\u8619
I7590
sV\u649a
I3061
sV\u6e9e
I9265
sV\u5927
I1098
sV\u632b
I5135
sV\u652f
I215
sV\u6f33
I3814
sV\u7b3b
I4135
sV\u94ba
I8996
sV\u7d3f
I5724
sV\u9ebe
I4005
sV\u63c0
I2348
sV\u8743
I8308
sV\u65c4
I4476
sV\u4e49
I3984
sV\u6fc8
I7233
sV\u934b
I6917
sV\u5a51
I8861
sV\u9f53
I6896
sV\u5c55
I1301
sV\u87d8
I9306
sV\u89dc
I4590
sV\u4ede
I1699
sV\u7261
I4419
sV\u95e4
I5100
sV\u5ae6
I2778
sV\u7e69
I770
sV\u5cea
I9000
sV\u8a71
I1404
sV\u4f73
I1297
sV\u68f2
I548
sV\u8c75
I8694
sV\u5177
I1927
sV\u72f6
I7515
sV\u6083
I3731
sV\u8702
I3067
sV\u748b
I6308
sV\u7893
I5232
sV\u9f12
I6790
sV\u8c9b
I6697
sV\u4f9d
I309
sV\u90a3
I773
sV\u53a5
I1590
sV\u6bb5
I2065
sV\u8a34
I3155
sV\u5536
I6445
sV\u71b9
I3883
sV\u9038
I3702
sV\u7fbd
I464
sV\u593e
I3748
sV\u85c1
I2196
sV\u83c5
I1094
sV\u4ec7
I4165
sV\u6b4a
I1390
sV\u97cd
I8915
sV\u714e
I1917
sV\u58d3
I1203
sV\u8556
I3165
sV\u6cdb
I2449
sV\u835a
I9212
sV\u6adf
I5881
sV\u895e
I6532
sV\u9762
I1193
sV\u666c
I6287
sV\u82ef
I7547
sV\u6c70
I4007
sV\u88f3
I416
sV\u96f7
I2882
sV\u51f9
I4463
sV\u7078
I6941
sV\u5ffd
I1109
sV\u7e7c
I984
sV\u9aff
I7207
sV\u8480
I8918
sV\u6305
I9583
sV\u8284
I7715
sV\u8888
I5780
sV\u5f92
I1214
sV\u8f1d
I1341
sV\u5023
I5190
sV\u77a2
I6433
sV\u7da6
I6495
sV\u622f
I3029
sV\u8fb2
I737
sV\u95b6
I4726
sV\u7a3f
I6968
sV\u8043
I4608
sV\u62c4
I2482
sV\u8e47
I2377
sV\u944b
I9121
sV\u574d
I8333
sV\u76cc
I6263
sV\u924f
I2170
sV\u9853
I2596
sV\u5b55
I5865
sV\u6159
I2286
sV\u7561
I8833
sV\u92e4
I3404
sV\u5de6
I2181
sV\u9179
I3345
sV\u9f7d
I9315
sV\u5a7f
I6372
sV\u6183
I6819
sV\u8602
I3626
sV\u6f87
I6959
sV\u758b
I6142
sV\u8a0a
I3195
sV\u570c
I7492
sV\u900e
I9046
sV\u5d10
I7401
sV\u9e12
I8927
sV\u8797
I6359
sV\u8b9f
I5759
sV\u58a9
I4405
sV\u7928
I2245
sV\u6cb1
I4553
sV\u4e32
I4173
sV\u5436
I7155
sV\u523a
I2372
sV\u84c1
I5765
sV\u6642
I187
sV\u55cb
I7954
sV\u96cd
I2974
sV\u59d3
I396
sV\u7e52
I5146
sV\u9ad5
I8652
sV\u8456
I8883
sV\u6ddb
I3504
sV\u4f5c
I20
sV\u885e
I7354
sV\u9662
I1876
sV\u5968
I8177
sV\u9a6a
I4648
sV\u83ef
I834
sV\u6d70
I7793
sV\u89f3
I5903
sV\u6b74
I8733
sV\u50f9
I2045
sV\u5efd
I9039
sV\u9bff
I6108
sV\u6205
I7338
sV\u8988
I4181
sV\u760d
I4947
sV\u7c11
I6646
sV\u6496
I9159
sV\u8019
I8881
sV\u8e1d
I7161
sV\u9421
I1760
sV\u5f27
I3499
sV\u7ca6
I8892
sV\u9829
I8455
sV\u652b
I4465
sV\u7aaa
I2561
sV\u632f
I1264
sV\u80ae
I7035
sV\u7737
I1900
sV\u5fbc
I2647
sV\u98be
I7848
sV\u63c4
I6424
sV\u8f47
I8226
sV\u564d
I4548
sV\u5c51
I3239
sV\u7dd0
I6629
sV\u5a55
I7670
sV\u7bd4
I3705
sV\u6059
I3733
sV\u81d8
I844
sV\u6e5d
I9392
sV\u95e0
I5101
sV\u93e4
I4871
sV\u5aea
I6009
sV\u60ee
I4255
sV\u6ef2
I7817
sV\u8a75
I5505
sV\u5777
I5622
sV\u74f6
I1221
sV\u9079
I4511
sV\u72fa
I3812
sV\u9e7d
I498
sV\u5b7f
I8752
sV\u78fe
I4055
sV\u6283
I6892
sV\u6c87
I9016
sV\u768b
I2387
sV\u890a
I413
sV\u540c
I441
sV\u7a93
I8621
sV\u9d12
I898
sV\u8e9b
I3260
sV\u57a1
I6661
sV\u7620
I2409
sV\u51a5
I2314
sV\u842c
I202
sV\u6fb1
I7223
sV\u8e30
I1608
sV\u513a
I5405
sV\u7dbd
I3355
sV\u9c3c
I9298
sV\u5b3e
I3717
sV\u87c1
I5689
sV\u6542
I8629
sV\u56cb
I6830
sV\u694a
I1773
sV\u95cd
I6297
sV\u50cf
I2094
sV\u734e
I8236
sV\u5ad3
I4344
sV\u99d5
I976
sV\u64d7
I8374
sV\u6edb
I7455
sV\u68df
I3379
sV\u8b5e
I8710
sV\u7ce7
I1592
sV\u9f66
I6347
sV\u80ef
I6264
sV\u4ff1
I1706
sV\u8af3
I516
sV\u6874
I3448
sV\u7278
I8942
sV\u9efb
I5210
sV\u5dfd
I6195
sV\u8084
I3942
sV\u4f86
I0
sV\u750d
I2431
sV\u538e
I9509
sV\u9e90
I9260
sV\u5d92
I4232
sV\u8319
I6828
sV\u619a
I3383
sV\u6b9e
I4325
sV\u9721
I8408
sV\u75a2
I6008
sV\u9b29
I8043
sV\u662b
I9207
sV\u79aa
I855
sV\u602f
I909
sV\u8db2
I8056
sV\u97b6
I6135
sV\u7e3b
I2760
sV\u91ba
I4207
sV\u66c0
I6319
sV\u60c4
I6222
sV\u964b
I1278
sV\u554d
I7868
sV\u74cc
I4260
sV\u904f
I5092
sV\u5955
I3838
sV\u78d4
I3066
sV\u8cdc
I1866
sV\u7761
I552
sV\u55e2
I6770
sV\u7165
I3277
sV\u90e4
I3313
sV\u7b69
I6517
sV\u59ea
I5712
sV\u856d
I228
sV\u63ee
I2061
sV\u8975
I9101
sV\u5477
I6781
sV\u5e7b
I1386
sV\u9d7d
I5415
sV\u587f
I4350
sV\u7bfe
I6989
sV\u6383
I885
sV\u6d87
I2299
sV\u8e06
I6739
sV\u778b
I5282
sV\u718f
I4592
sV\u920e
I2386
sV\u7b93
I9109
sV\u9c12
I5726
sV\u5914
I1980
sV\u8f9b
I2539
sV\u7720
I615
sV\u7b28
I8555
sV\u64ad
I1766
sV\u852c
I64
sV\u6eb1
I5398
sV\u68b5
I1387
sV\u5636
I1422
sV\u7cbd
I7803
sV\u80c5
I9324
sV\u6e46
I6536
sV\u8ac9
I6461
sV\u57cb
I1033
sV\u51cf
I5440
sV\u724e
I1757
sV\u9ed1
I1650
sV\u5bd3
I2508
sV\u65d7
I866
sV\u8656
I9279
sV\u6fdb
I3064
sV\u805a
I659
sV\u8a5e
I818
sV\u73e3
I5523
sV\u87eb
I4616
sV\u656c
I1146
sV\u81ef
I4141
sV\u6f70
I1962
sV\u7378
I4641
sV\u5cfd
I2693
sV\u99ff
I3727
sV\u8780
I8522
sV\u4e86
I1508
sV\u958c
I7136
sV\u7e11
I4917
sV\u9f90
I794
sV\u7815
I9343
sV\u6696
I559
sV\u609a
I3618
sV\u6a9e
I8682
sV\u9621
I1084
sV\u5323
I814
sV\u9025
I7371
sV\u5d27
I3207
sV\u9a29
I5496
sV\u672b
I1346
sV\u78aa
I6071
sV\u612f
I6833
sV\u82ae
I8264
sV\u4fb0
I9302
sV\u8cb2
I2284
sV\u7537
I1216
sV\u7f3b
I8765
sV\u5dbc
I3446
sV\u9abe
I7377
sV\u8343
I2002
sV\u75cc
I9522
sV\u914f
I9618
sV\u7fd0
I8383
sV\u5855
I7691
sV\u79d4
I5314
sV\u83d8
I4200
sV\u6c5d
I1482
sV\u7661
I2659
sV\u97e0
I3896
sV\u54e2
I4024
sV\u91e4
I6167
sV\u7a69
I4184
sV\u9be8
I2342
sV\u846d
I5488
sV\u62ee
I5942
sV\u6cf2
I8818
sV\u70fa
I8582
sV\u6c83
I3177
sV\u8b02
I1184
sV\u8106
I3400
sV\u870a
I6706
sV\u5a0c
I9424
sV\u7e8f
I4394
sV\u5010
I2421
sV\u5614
I5040
sV\u809b
I6823
sV\u7820
I7078
sV\u7428
I5524
sV\u6bad
I6693
sV\u8030
I6399
sV\u67b5
I5614
sV\u8634
I9382
sV\u5f3a
I2574
sV\u553e
I2028
sV\u8fc5
I3746
sV\u6146
I7965
sV\u85c9
I2400
sV\u5ecf
I5418
sV\u91d1
I385
sV\u7352
I6346
sV\u8956
I5655
sV\u60db
I7869
sV\u855e
I6206
sV\u5468
I379
sV\u6070
I5376
sV\u84f3
I6502
sV\u6674
I63
sV\u7c78
I9147
sV\u727c
I9510
sV\u6901
I8508
sV\u8880
I9340
sV\u8e84
I5709
sV\u6509
I9465
sV\u9090
I3510
sV\u7715
I8690
sV\u9694
I480
sV\u8d19
I9486
sV\u831d
I3662
sV\u9921
I9311
sV\u5227
I9259
sV\u77aa
I7102
sV\u6e2f
I5854
sV\u7a37
I4773
sV\u5cb8
I569
sV\u52bc
I9288
sV\u95be
I4979
sV\u6ec4
I2129
sV\u8247
I1348
sV\u984b
I5370
sV\u6d59
I3266
sV\u4fda
I5072
sV\u82dc
I4048
sV\u5be2
I1319
sV\u7f65
I5387
sV\u9ee4
I8888
sV\u6dee
I496
sV\u8171
I9117
sV\u63f2
I7596
sV\u5a77
I2446
sV\u507b
I5694
sV\u7ffa
I1892
sV\u75fe
I4213
sV\u8a02
I5294
sV\u6387
I4239
sV\u8006
I1135
sV\u798b
I5090
sV\u5b0c
I692
sV\u5110
I8800
sV\u9212
I7190
sV\u879f
I4514
sV\u5ea5
I8637
sV\u93a7
I6802
sV\u7528
I1180
sV\u8b2c
I3557
sV\u60b1
I6750
sV\u8130
I3936
sV\u66b5
I6551
sV\u8734
I6605
sV\u7cb9
I4857
sV\u543e
I609
sV\u88c1
I2322
sV\u84c9
I2771
sV\u59cb
I1142
sV\u7252
I4244
sV\u96d5
I4379
sV\u6bd7
I3073
sV\u8856
I6539
sV\u67df
I7002
sV\u5960
I1017
sV\u7de3
I370
sV\u9a62
I1700
sV\u5f64
I1045
sV\u89eb
I5904
sV\u966a
I3734
sV\u6170
I1195
sV\u6774
I6678
sV\u737c
I6714
sV\u97ff
I55
sV\u6e05
I152
sV\u6409
I7963
sV\u8588
I4993
sV\u7a0d
I3094
sV\u7011
I4401
sV\u9190
I6423
sV\u5292
I4998
sV\u7615
I9119
sV\u9794
I8990
sV\u649e
I4438
sV\u9821
I933
sV\u76aa
I5022
sV\u6f2f
I7395
sV\u8cae
I8083
sV\u98b6
I4652
sV\u5db8
I3290
sV\u69c0
I5110
sV\u4e45
I403
sV\u8347
I4662
sV\u65c8
I7767
sV\u994b
I3120
sV\u7bcc
I7247
sV\u9f4f
I4063
sV\u71d0
I5068
sV\u6c59
I1755
sV\u83dc
I3143
sV\u50e6
I5036
sV\u7469
I1528
sV\u8a6d
I2644
sV\u4f6f
I3377
sV\u6cee
I4527
sV\u8071
I1831
sV\u62f2
I9568
sV\u8675
I6581
sV\u78f6
I9660
sV\u8902
I9064
sV\u8306
I5260
sV\u9f0e
I239
sV\u7693
I3220
sV\u9112
I2568
sV\u8897
I6898
sV\u601c
I8503
sV\u849f
I6663
sV\u7a20
I2670
sV\u7628
I8516
sV\u69ad
I4378
sV\u65b5
I1571
sV\u7fb9
I243
sV\u5d3a
I8905
sV\u903c
I1550
sV\u573e
I9607
sV\u4ec3
I8144
sV\u6942
I6851
sV\u8dc5
I9430
sV\u6346
I8265
sV\u87c9
I6165
sV\u5acb
I5512
sV\u7f4e
I9199
sV\u93d1
I4580
sV\u56d3
I5344
sV\u7152
I6326
sV\u95d5
I831
sV\u68d7
I1357
sV\u8b56
I7378
sV\u4e58
I1410
sV\u62db
I777
sV\u5c64
I2035
sV\u5668
I1145
sV\u8aeb
I3646
sV\u6474
I5973
sV\u7e78
I9585
sV\u51fd
I1303
sV\u707c
I2266
sV\u6709
I426
sV\u5192
I3333
sV\u7515
I4017
sV\u6b96
I5011
sV\u8f19
I4035
sV\u6d9a
I6735
sV\u811d
I8716
sV\u9b21
I9418
sV\u5e23
I9683
sV\u9d25
I8628
sV\u73a6
I2182
sV\u75aa
I8223
sV\u8fae
I8267
sV\u6633
I7718
sV\u5eb8
I382
sV\u723b
I4784
sV\u9dba
I897
sV\u97be
I4380
sV\u6cc4
I5098
sV\u66c8
I5876
sV\u9c4f
I9395
sV\u5351
I562
sV\u72d0
I4846
sV\u74d4
I8090
sV\u6f59
I7524
sV\u615d
I6538
sV\u80dc
I9364
sV\u9ae0
I4719
sV\u59e2
I6988
sV\u53e6
I8514
sV\u96e8
I160
sV\u896d
I1886
sV\u6fee
I4767
sV\u61f2
I5348
sV\u7dfa
I7613
sV\u547f
I7953
sV\u6187
I4246
sV\u7b8b
I4176
sV\u840a
I2808
sV\u7d8f
I4075
sV\u9e0e
I5081
sV\u5310
I6591
sV\u5514
I9548
sV\u4e99
I6258
sV\u6f18
I4453
sV\u839b
I6869
sV\u611c
I2507
sV\u859f
I8940
sV\u7b20
I3740
sV\u5ca5
I9619
sV\u7728
I5764
sV\u68ad
I4927
sV\u62b1
I620
sV\u8330
I7451
sV\u8534
I9222
sV\u5a36
I6395
sV\u5c3a
I1672
sV\u913c
I7619
sV\u4fc3
I3033
sV\u6842
I1570
sV\u6246
I4603
sV\u86c9
I5989
sV\u8a56
I7725
sV\u63db
I3108
sV\u8c5a
I1200
sV\u65df
I3675
sV\u865e
I3022
sV\u7fe3
I6405
sV\u9862
I5351
sV\u71e7
I4549
sV\u9266
I5419
sV\u5768
I6644
sV\u946a
I3188
sV\u696c
I8771
sV\u8def
I325
sV\u87f3
I9414
sV\u6574
I1629
sV\u99f7
I8769
sV\u5ef9
I2815
sV\u7f78
I8806
sV\u50fd
I9198
sV\u717c
I9452
sV\u6a01
I6727
sV\u8b80
I2609
sV\u6c05
I2897
sV\u8d84
I2132
sV\u6609
I7279
sV\u780d
I6093
sV\u5092
I7133
sV\u9594
I4013
sV\u6c9a
I2592
sV\u801d
I8993
sV\u9c25
I5583
sV\u72a6
I8961
sV\u74aa
I8361
sV\u80b2
I2792
sV\u733b
I8816
sV\u51bc
I8960
sV\u753f
I6173
sV\u6bc0
I1603
sV\u8f43
I8207
sV\u6dc4
I4705
sV\u67c8
I6908
sV\u9b4b
I6805
sV\u584d
I5120
sV\u75d4
I6007
sV\u605d
I4710
sV\u7a61
I1859
sV\u7c65
I5184
sV\u9de4
I5895
sV\u52e6
I4963
sV\u7669
I8586
sV\u54ea
I9500
sV\u6eee
I5204
sV\u8271
I1131
sV\u60f2
I5437
sV\u8475
I3002
sV\u7af6
I2070
sV\u9e79
I4898
sV\u537b
I1725
sV\u7cfa
I8101
sV\u907d
I839
sV\u76fe
I5491
sV\u6883
I6905
sV\u6687
I2810
sV\u8506
I9397
sV\u5e0c
I2569
sV\u5410
I2914
sV\u9712
I8939
sV\u5214
I8845
sV\u8e97
I6507
sV\u661c
I7457
sV\u829f
I1860
sV\u7c20
I6762
sV\u5ba5
I2099
sV\u96a7
I3346
sV\u51a9
I8277
sV\u7028
I2678
sV\u8234
I4375
sV\u79b9
I1289
sV\u9838
I1811
sV\u5b3a
I7918
sV\u77bd
I4179
sV\u963c
I8624
sV\u81c9
I565
sV\u5ccb
I6277
sV\u95d1
I9389
sV\u7752
I5923
sV\u93d5
I9317
sS'\xe5'
I8000
sV\u8b5a
I6220
sV\u5c60
I2139
sV\u78e3
I7630
sV\u76e7
I4113
sV\u8ceb
I4137
sV\u936a
I7249
sV\u6470
I7403
sV\u9ef7
I4930
sV\u59f9
I6041
sV\u57fd
I4802
sV\u767c
I175
sV\u4f82
I9431
sV\u8a84
I6339
sV\u6109
I3540
sV\u8088
I8082
sV\u9e8c
I7697
sV\u7511
I3107
sV\u4e17
I9069
sV\u6d96
I7707
sV\u6b9a
I8474
sV\u619e
I9551
sV\u9b25
I6129
sV\u4eac
I2191
sV\u6033
I2958
sV\u7e37
I3611
sV\u56bc
I2547
sV\u91be
I5575
sV\u8843
I7536
sV\u5f4d
I6186
sV\u5551
I5775
sV\u9053
I610
sV\u5355
I4387
sV\u72d4
I6853
sV\u6959
I7680
sV\u88d8
I2896
sV\u86dc
I9092
sV\u7d61
I1839
sV\u7b65
I1366
sV\u7169
I1391
sV\u90e8
I3054
sV\u53ea
I196
sV\u69ee
I9170
sV\u5e77
I1741
sV\u547b
I4664
sV\u977d
I8923
sV\u527f
I2212
sV\u71fe
I7100
sV\u6787
I4432
sV\u8406
I7921
sV\u820a
I29
sV\u7b8f
I5646
sV\u980e
I5411
sV\u5510
I1683
sV\u7193
I9001
sV\u859b
I5432
sV\u839f
I7928
sV\u5ca1
I310
sV\u7d20
I234
sV\u99a3
I7853
sV\u8f2c
I9098
sV\u62b5
I4464
sV\u8cc1
I2471
sV\u5dcb
I5056
sV\u624a
I6877
sV\u9ecd
I1345
sV\u784e
I5882
sV\u51d3
I6719
sV\u65db
I99
sV\u805e
I312
sV\u5d60
I9044
sV\u79e3
I4028
sV\u5b64
I460
sV\u77e7
I2164
sV\u5168
I1658
sV\u8deb
I5972
sV\u4eed
I8412
sV\u6f6c
I5632
sV\u6570
I5680
sV\u81f3
I1185
sV\u58f9
I3820
sV\u4e82
I605
sV\u6a05
I5951
sV\u8188
I2828
sV\u7215
I3818
sV\u9394
I6244
sV\u6c96
I3870
sV\u8819
I6776
sV\u609e
I3466
sV\u5923
I7589
sV\u6d2b
I7139
sV\u7f37
I5380
sV\u59b8
I7313
sV\u733f
I1402
sV\u90be
I6451
sV\u6dc0
I5742
sV\u8943
I4999
sV\u8747
I8472
sV\u61c8
I6751
sV\u5e4d
I8877
sV\u7fcc
I5252
sV\u9b4f
I412
sV\u5451
I2728
sV\u5255
I8142
sV\u665d
I86
sV\u5ee2
I563
sV\u7a65
I9177
sV\u9be4
I2860
sV\u54e6
I1906
sV\u7069
I4481
sV\u8e6d
I4195
sV\u68ee
I2620
sV\u8471
I4293
sV\u66f2
I1541
sV\u5f77
I3270
sV\u7cf6
I6176
sV\u557b
I2026
sV\u7afa
I5231
sV\u967d
I317
sV\u537f
I1128
sV\u4e00
I3
sV\u6a83
I7060
sV\u6487
I5628
sV\u8706
I5042
sV\u810a
I4187
sV\u5610
I6286
sV\u5014
I5714
sV\u641c
I752
sS'\x9f'
I8021
sV\u5fa1
I1027
sV\u7e20
I3624
sV\u59a5
I1995
sV\u53a9
I8926
sV\u7228
I2685
sV\u75bd
I6904
sV\u533e
I9419
sV\u6746
I8684
sV\u83c9
I5932
sV\u5ecb
I6757
sV\u614a
I6343
sV\u6cd7
I2520
sV\u8f56
I7568
sV\u66db
I905
sV\u895a
I4341
sV\u60df
I717
sV\u7ae3
I8759
sV\u5864
I4721
sV\u9766
I4718
sV\u5268
I6306
sV\u8eeb
I3034
sV\u916a
I4066
sV\u88ef
I1759
sV\u6670
I6316
sV\u9cf7
I7588
sV\u7a78
I2822
sV\u96fb
I4562
sV\u55fd
I5933
sV\u90ff
I7045
sV\u6f01
I497
sV\u6905
I6131
sV\u6309
I2699
sV\u8288
I9111
sV\u7d0d
I2155
sV\u5b8e
I5975
sV\u9690
I1880
sV\u7115
I8127
sV\u8b19
I1136
sV\u639e
I5835
sV\u5a23
I6331
sV\u7da2
I2637
sV\u5427
I9261
sV\u6e2b
I5559
sV\u6233
I6810
sV\u7c37
I537
sV\u5ab8
I3409
sV\u763b
I8190
sV\u99ba
I5837
sV\u4f41
I9375
sV\u6ec0
I6133
sV\u68c4
I2847
sV\u62c8
I1671
sV\u5751
I4748
sV\u5155
I3767
sV\u6b59
I5310
sV\u655d
I2776
sV\u7f61
I6139
sV\u9ee0
I2686
sV\u5de2
I742
sV\u7965
I954
sV\u8d6d
I3381
sV\u8771
I4931
sV\u7ff6
I8972
sV\u73fe
I4148
sV\u6b83
I5283
sV\u6587
I1088
sV\u8606
I1354
sV\u7f8b
I7653
sV\u798f
I2648
sV\u9a0e
I1122
sV\u5114
I3452
sV\u651c
I2627
sV\u819f
I8866
sV\u58a5
I5111
sV\u95a7
I2652
sV\u52a9
I1446
sV\u7328
I5127
sV\u66b1
I7356
sV\u60b5
I254
sV\u74bd
I6436
sV\u6c42
I1499
sV\u88c5
I4210
sV\u604a
I7840
sV\u7a4e
I3650
sV\u90d5
I8192
sV\u61df
I4116
sV\u5f60
I7851
sV\u5368
I7485
sV\u8feb
I2869
sV\u6770
I8909
sV\u6174
I8182
sV\u97fb
I4171
sV\u54fd
I5131
sV\u8f80
I8414
sV\u6805
I7001
sV\u7c0d
I8930
sV\u5492
I7069
sV\u7015
I3455
sV\u6e96
I4737
sV\u7ca2
I2429
sV\u9825
I8632
sV\u5527
I5003
sV\u76a6
I2803
sV\u6f2b
I588
sV\u84b2
I1522
sV\u5bb8
I2783
sV\u98ba
I5148
sV\u6fc0
I1486
sV\u9f4b
I848
sV\u5c4d
I5138
sV\u7dcc
I5206
sV\u5055
I3951
sV\u71d4
I4640
sV\u4ed6
I469
sV\u6a59
I2477
sV\u645d
I6840
sV\u85dc
I2011
sV\u7e61
I1006
sV\u56e6
I7895
sV\u7269
I1110
sV\u93e8
I8788
sV\u8c6d
I5025
sV\u8671
I4638
sV\u64f2
I4735
sV\u8075
I5549
sV\u5d77
I6672
sV\u577b
I5845
sV\u947d
I2525
sV\u5000
I2911
sV\u7483
I4235
sV\u5c08
I2097
sV\u608b
I6600
sV\u668f
I7785
sV\u6c93
I5122
sV\u4e14
I899
sV\u5599
I5361
sV\u7a1c
I3790
sV\u9e9f
I981
sV\u6020
I2159
sV\u73ad
I7796
sV\u552e
I3594
sV\u79b1
I1002
sV\u9830
I3060
sV\u5b32
I7956
sV\u7fb5
I9542
sV\u65b9
I788
sV\u8438
I3411
sV\u6bbd
I3973
sV\u8a3c
I7460
sV\u91c1
I5955
sV\u97c5
I6498
sV\u654e
I7405
sV\u8fd5
I3465
sV\u72d7
I1641
sV\u9156
I5049
sV\u975a
I5083
sV\u9d5e
I3321
sV\u64e3
I2976
sV\u6ae7
I6064
sV\u8966
I3830
sV\u90eb
I7359
sV\u96ef
I8797
sV\u59f1
I5891
sV\u9cf3
I830
sV\u5ff5
I1731
sV\u82f7
I4612
sV\u6478
I6136
sV\u88fb
I8332
sV\u8eff
I5109
sV\u9080
I2363
sV\u5382
I6307
sV\u9684
I2736
sV\u7d09
I4820
sV\u5f8a
I2892
sV\u630d
I8703
sV\u6911
I7973
sV\u8890
I9228
sV\u6f15
I2737
sV\u8e94
I5404
sV\u5217
I1349
sV\u7196
I8164
sV\u581b
I6051
sV\u5e1f
I5601
sV\u63a2
I3241
sV\u8725
I7184
sV\u69a6
I6333
sV\u702b
I7329
sV\u52ac
I1148
sV\u7c33
I5986
sV\u6237
I1771
sV\u87ba
I4807
sV\u8dbe
I1039
sV\u5141
I2798
sV\u7cc8
I2090
sV\u62cc
I4441
sV\u68d0
I5787
sV\u4f55
I9
sV\u6ed4
I3655
sV\u51d6
I5354
sV\u7559
I351
sV\u7b5d
I7456
sV\u5dde
I858
sV\u80e0
I4997
sV\u6765
I1557
sV\u86e4
I6859
sV\u6d69
I601
sV\u8ce8
I4362
sV\u506b
I8542
sV\u936d
I5163
sV\u7bf2
I6912
sV\u61f6
I585
sV\u8b7d
I1125
sV\u5100
I1049
sV\u7583
I5980
sV\u5704
I5230
sV\u7b87
I2956
sV\u9806
I1147
sV\u5d08
I9231
sV\u9e0a
I6789
sV\u678f
I6610
sV\u840e
I56
sV\u6d93
I3140
sV\u8a12
I8128
sV\u9397
I6472
sV\u7518
I247
sV\u6120
I7514
sV\u6d28
I9447
sV\u932c
I1814
sV\u542e
I5147
sV\u9930
I7937
sV\u9f34
I8186
sV\u8b3c
I8326
sV\u90c1
I4537
sV\u7242
I7130
sV\u96c5
I1631
sV\u5bc7
I422
sV\u5b5c
I4494
sV\u7fdf
I3539
sV\u736c
I6831
sV\u9df3
I7911
sV\u6578
I635
sV\u7001
I6788
sV\u5282
I6067
sV\u7c09
I3986
sV\u5e8a
I2764
sV\u620d
I3763
sV\u5317
I199
sV\u9419
I5463
sV\u769a
I4377
sV\u5f1f
I1324
sV\u7c9e
I7531
sV\u8021
I5495
sV\u712b
I7296
sV\u6eaa
I46
sV\u772f
I7755
sV\u7d33
I1000
sV\u5fb4
I2440
sS'\xb6'
I8011
sV\u86ba
I8379
sV\u6f3f
I2842
sV\u71c0
I9266
sV\u77c4
I9030
sV\u814b
I6050
sV\u69d0
I618
sV\u6fd4
I9565
sV\u50d6
I6305
sV\u7459
I5251
sV\u95d8
I8619
sV\u56da
I3633
sV\u5cde
I9610
sV\u6061
I8507
sV\u81e0
I6146
sV\u6665
I8175
sV\u6c69
I5369
sV\u8de8
I2532
sV\u516b
I845
sV\u576f
I6385
sV\u74ee
I8339
sV\u9871
I1210
sV\u5d73
I7349
sV\u9e75
I3564
sV\u60f6
I5287
sV\u8479
I8448
sV\u66fa
I9679
sV\u4f7f
I820
sV\u5200
I2338
sV\u9102
I5946
sV\u5404
I1329
sV\u9b06
I5840
sV\u648f
I6280
sV\u870e
I6886
sV\u6e93
I9507
sV\u8912
I2044
sV\u9097
I4088
sV\u599d
I4420
sV\u86a3
I9130
sV\u6424
I7703
sV\u88a7
I9450
sV\u71ad
I5814
sV\u572e
I6632
sV\u7bb1
I3149
sV\u9a30
I1828
sV\u5932
I8480
sV\u7db5
I1466
sV\u67b9
I1888
sV\u8638
I4434
sV\u4f3e
I6341
sV\u93c1
I3768
sV\u58c7
I3213
sV\u7b46
I942
sV\u81cd
I4043
sV\u674e
I151
sV\u8dd5
I2594
sV\u7adb
I3068
sV\u585c
I2989
sV\u7cdf
I2933
sV\u9f5e
I9386
sV\u68e7
I3301
sV\u8b66
I824
sV\u51ed
I1882
sV\u5bf1
I8936
sV\u7a70
I2406
sV\u9ef3
I7431
sV\u5df5
I3157
sV\u9280
I462
sV\u9e88
I3059
sV\u610d
I4319
sV\u808c
I4498
sV\u6b11
I8506
sV\u8c94
I1313
sV\u7396
I6829
sV\u9719
I6852
sV\u5a1b
I3309
sV\u759a
I5267
sV\u7f9e
I1299
sV\u8525
I4286
sV\u8f29
I1554
sV\u6daa
I1928
sV\u50ac
I472
sV\u742f
I5392
sV\u97ae
I5909
sV\u7e33
I7331
sV\u85ba
I3449
sV\u5341
I928
sV\u72c0
I2318
sV\u5545
I5620
sV\u9847
I6685
sV\u824b
I4376
sV\u6cd4
I4614
sV\u53d6
I1810
sV\u96d8
I4399
sV\u55da
I1601
sV\u795d
I2083
sV\u98dc
I7474
sV\u6f69
I6674
sV\u8ee8
I5877
sV\u916d
I9689
sV\u77ee
I1871
sV\u5e73
I362
sV\u63f6
I7126
sV\u65fa
I7530
sV\u6ffe
I5274
sV\u5300
I8782
sV\u9002
I8962
sV\u5504
I5592
sV\u7987
I7379
sV\u5f08
I6013
sV\u8812
I2362
sV\u5699
I4635
sV\u589d
I5833
sV\u791c
I9595
sV\u87a3
I7788
sV\u6524
I8305
sV\u89a7
I4160
sV\u70ad
I2674
sV\u7ab1
I3331
sV\u9b30
I2634
sV\u5832
I7317
sV\u7cb5
I4688
sV\u66b9
I5263
sV\u893c
I8050
sV\u57c3
I1065
sV\u7042
I3562
sV\u7a46
I3761
sV\u7c4a
I6382
sV\u80cd
I8895
sV\u8ad1
I6082
sV\u8cd5
I7855
sV\u7bdb
I7021
sV\u945a
I7332
sV\u69e7
I4880
sV\u8a66
I2082
sV\u8c6a
I2319
sV\u50ed
I4673
sV\u716c
I6499
sV\u7b70
I7148
sV\u5cf5
I9460
sV\u697c
I7615
sV\u7405
I1462
sV\u7e09
I4588
sV\u5c8a
I7537
sV\u600d
I3181
sV\u6a11
I8153
sV\u8b90
I6252
sV\u5117
I3394
sV\u7296
I4978
sV\u5b1b
I7845
sV\u749a
I7283
sV\u5d1f
I5338
sV\u8221
I5212
sV\u60a2
I8262
sV\u732b
I9048
sV\u51ac
I915
sV\u752f
I3148
sV\u96ae
I5794
sV\u5bb0
I2334
sV\u5db4
I7678
sV\u6137
I6126
sV\u6b3b
I4660
sV\u84ba
I6140
sV\u6d3f
I2156
sV\u5241
I5760
sV\u73c0
I5969
sV\u9743
I7828
sV\u9947
I8404
sV\u61cc
I6249
sV\u8f53
I3897
sV\u52d6
I8059
sV\u7659
I8969
sV\u97d8
I6882
sV\u785d
I8876
sV\u99dc
I8436
sV\u5ede
I4318
sV\u85e4
I1920
sV\u6e69
I5743
sV\u8fe8
I2169
sV\u906d
I2231
sV\u76ee
I528
sV\u5f73
I6934
sV\u78f2
I8692
sV\u62f6
I1875
sV\u8679
I3215
sV\u64fa
I1448
sV\u887d
I5372
sV\u6efe
I5791
sV\u9702
I4968
sV\u5204
I9052
sV\u7e87
I2326
sV\u9d06
I4166
sV\u5808
I7429
sV\u648b
I9294
sV\u6893
I5515
sV\u8f12
I2414
sV\u9697
I5420
sV\u7018
I4687
sV\u80a3
I6893
sV\u8ea7
I6860
sV\u77ad
I6265
sV\u962c
I3515
sV\u7db1
I4489
sV\u7bb5
I4852
sV\u6fbd
I8780
sV\u8e3c
I8772
sV\u7742
I9449
sV\u5ec7
I8040
sV\u7d46
I3276
sV\u99c9
I6325
sV\u7b4a
I8499
sV\u614e
I2552
sV\u8dd1
I6299
sV\u6f52
I9670
sV\u76d7
I3156
sV\u5058
I9149
sV\u935a
I8452
sV\u7adf
I602
sV\u995e
I5710
sV\u8d66
I3425
sV\u57ed
I6054
sV\u766c
I7215
sV\u5df1
I1083
sV\u7c70
I8231
sV\u5bf5
I2752
sV\u7a74
I545
sV\u8cfb
I6786
sV\u6e7c
I7340
sV\u5782
I260
sV\u5d86
I9263
sV\u7909
I7242
sV\u670d
I790
sV\u868c
I5371
sV\u6d11
I4761
sV\u8c90
I7388
sV\u5617
I1953
sV\u9119
I2148
sV\u5a1f
I3361
sV\u8521
I2015
sV\u742b
I7690
sV\u6baa
I3642
sV\u56ac
I2424
sV\u91ae
I6519
sV\u5cb0
I9428
sV\u7833
I7091
sV\u85b6
I7210
sV\u5541
I3350
sV\u74c0
I8535
sV\u5345
I7241
sV\u72c4
I2208
sV\u5949
I865
sV\u78c8
I6111
sV\u6cd0
I4740
sV\u8853
I784
sV\u7159
I1516
sV\u53da
I5363
sV\u7f5d
I6073
sV\u9edc
I4892
sV\u59de
I6344
sV\u6365
I6116
sV\u6969
I5474
sV\u88e8
I3983
sV\u546b
I6000
sV\u526f
I3999
sV\u71ee
I6189
sV\u8179
I242
sV\u63fa
I1874
sV\u5304
I7558
sV\u9a0a
I9096
sV\u638f
I5539
sV\u800e
I5930
sV\u5099
I421
sV\u76ad
I7693
sV\u502e
I7321
sV\u7cb1
I2656
sV\u9d30
I6915
sV\u7ab5
I9688
sV\u9b34
I5161
sV\u60b9
I6673
sV\u6ebd
I2075
sV\u8f3c
I8558
sV\u7642
I2368
sV\u7a4a
I6500
sV\u8cd1
I7128
sV\u77d7
I3671
sV\u5f5c
I7231
sV\u985e
I1159
sV\u61e3
I4180
sV\u8662
I6950
sV\u7d70
I7194
sV\u5af5
I2875
sV\u7b74
I5027
sV\u6178
I7906
sV\u6f7c
I6604
sV\u7401
I7448
sV\u9580
I484
sV\u7809
I5076
sV\u6c11
I991
sV\u8d90
I5683
sV\u4e92
I3090
sV\u6a15
I6520
sV\u5717
I2616
sV\u9019
I4841
sV\u5d1b
I2434
sV\u9e1d
I3704
sV\u789e
I6404
sV\u66a2
I4305
sV\u8225
I7468
sV\u752b
I2695
sV\u5db0
I6392
sV\u5bb4
I2703
sV\u6d3b
I1662
sV\u6b3f
I9006
sV\u75c0
I7673
sV\u9143
I7966
sV\u5849
I9545
sV\u79c8
I8871
sV\u854b
I7826
sV\u834f
I3922
sV\u8953
I9516
sV\u6bd4
I1724
sV\u7059
I7032
sV\u91d8
I1655
sV\u58de
I4479
sV\u536f
I3882
sV\u5973
I414
sV\u5600
I7251
sV\u7c87
I7217
sV\u5a08
I8832
sV\u668b
I9289
sV\u990a
I740
sV\u4e10
I2725
sV\u9e9b
I7209
sV\u5d9d
I4081
sV\u7c1c
I6911
sV\u6620
I1490
sV\u82a3
I7747
sV\u8ca7
I741
sV\u6a28
I8193
sV\u7fb1
I8263
sV\u9834
I3402
sV\u8238
I4251
sV\u8c3c
I8479
sV\u97c1
I5168
sV\u52c3
I5960
sV\u91c5
I4882
sV\u9bc9
I3163
sV\u794a
I8559
sV\u85cd
I3423
sV\u634e
I6871
sV\u8fd1
I58
sV\u89d5
I8363
sV\u9756
I3144
sV\u8562
I8106
sV\u896a
I1808
sV\u90ef
I8176
sV\u5ff1
I6553
sV\u7e70
I6943
sV\u8efb
I3848
sV\u7701
I2010
sV\u5582
I9471
sV\u9084
I17
sV\u598a
I9429
sV\u6f11
I7350
sV\u8e90
I5992
sV\u7796
I9120
sV\u9319
I5611
sV\u5e1b
I2125
sV\u719a
I8299
sV\u9d1d
I8078
sV\u8721
I6329
sV\u6fa6
I3745
sV\u8b29
I9128
sV\u54ac
I5174
sV\u93ae
I3850
sV\u7a33
I7346
sV\u6e3b
I6930
sV\u81ba
I1028
sV\u5741
I9285
sV\u5145
I241
sV\u7ac8
I1730
sV\u864b
I8779
sV\u4f51
I1133
sV\u7d5d
I8521
sV\u5bde
I402
sV\u6165
I9173
sS'\xe4'
I7989
sV\u6b69
I9195
sV\u566b
I2536
sV\u73ee
I1977
sV\u7df2
I2033
sV\u61fa
I4835
sV\u7383
I1401
sV\u5104
I1620
sV\u5b08
I5428
sV\u678b
I4569
sV\u980a
I6603
sV\u820e
I7237
sV\u4f10
I3547
sV\u9597
I7765
sV\u5299
I8463
sV\u7318
I6390
sV\u5c9d
I8424
sV\u7d1c
I3940
sV\u522e
I4467
sV\u62b9
I4561
sV\u8338
I3353
sV\u6cbd
I3168
sV\u96c1
I288
sV\u53c3
I1412
sV\u90c5
I6985
sV\u5dc7
I4961
sV\u7e46
I2598
sV\u84cd
I4326
sV\u624e
I7790
sV\u8ed1
I6888
sV\u6c52
I9390
sV\u88d5
I1050
sV\u75d7
I4114
sV\u7fdb
I2868
sV\u79df
I4775
sV\u63e3
I6467
sV\u54ed
I944
sV\u756c
I3549
sV\u5ef1
I3860
sV\u7f70
I2198
sV\u7974
I8245
sV\u85f7
I7498
sV\u8ffb
I7409
sV\u6d7c
I5768
sV\u89ff
I8365
sV\u7601
I3787
sV\u9780
I9520
sV\u5482
I6444
sV\u9184
I8978
sV\u7a09
I3689
sV\u9b88
I8597
sV\u588a
I4996
sV\u640d
I936
sV\u858c
I3052
sV\u6e11
I8390
sV\u8994
I1544
sV\u7696
I6065
sV\u5f1b
I3989
sV\u709a
I7336
sV\u7a9e
I7178
sV\u64a2
I9665
sV\u8a29
I9020
sV\u55ac
I1376
sV\u712f
I4962
sV\u7b33
I3802
sV\u6537
I7876
sV\u86b6
I4613
sV\u6f3b
I7031
sV\u80ba
I2887
sV\u693f
I4634
sV\u8abe
I7684
sV\u5641
I8981
sV\u71c4
I1829
sV\u5a49
I2458
sV\u65cc
I1310
sV\u814f
I9616
sV\u69d4
I5804
sV\u7259
I1832
sV\u93d8
I4921
sV\u50da
I2852
sV\u7c5d
I4336
sV\u6661
I4250
sV\u87e0
I946
sV\u6065
I1848
sV\u576b
I7896
sV\u5b73
I5139
sV\u7cf2
I1406
sV\u66f6
I7441
sV\u4f7b
I8994
sV\u60fa
I5650
sV\u5800
I5700
sV\u7c83
I6954
sV\u9b02
I8073
sV\u7287
I7494
sV\u9106
I5031
sV\u5408
I322
sV\u6493
I3124
sV\u8312
I2849
sV\u5d99
I6276
sV\u909b
I5517
sV\u539d
I8731
sV\u969f
I5430
sV\u8ca3
I7775
sV\u6e24
I2765
sV\u82a7
I5918
sV\u6428
I6593
sV\u7bad
I1679
sV\u71b1
I1960
sV\u9030
I8735
sV\u5332
I8510
sV\u4f3a
I4939
sS'\xb4'
I8004
sV\u99c1
I3074
sV\u52c7
I2187
sV\u7146
I7125
sV\u95c9
I3413
sV\u81d1
I6677
sV\u9f5a
I3584
sV\u525c
I5467
sV\u76df
I2000
sV\u6ce3
I971
sV\u8166
I6811
sV\u98eb
I2932
sV\u9eef
I482
sV\u51f1
I4254
sV\u7070
I3191
sV\u57f5
I8271
sV\u8af7
I5290
sV\u627c
I2732
sV\u7901
I8753
sV\u5b82
I7575
sV\u9e84
I3162
sV\u8a8c
I4655
sS'\x90'
I8022
sV\u6715
I6211
sV\u8694
I8397
sV\u5a17
I9646
sV\u7996
I4786
sV\u501b
I8189
sV\u7f9a
I8596
sV\u6ba2
I8112
sV\u8f25
I7912
sV\u7e2f
I8281
sV\u7433
I1311
sV\u56b4
I1318
sV\u6a37
I9211
sV\u89b6
I9454
sV\u85be
I711
sV\u74c8
I3250
sV\u884b
I6232
sV\u8e4f
I7003
sV\u8453
I8063
sV\u7d59
I6166
sV\u735d
I8697
sV\u88e0
I7347
sV\u586b
I1552
sV\u5473
I278
sV\u6ffa
I3279
sV\u7d83
I5388
sV\u9a02
I6993
sV\u5f04
I1663
sV\u7387
I4455
sV\u9006
I1734
sV\u5508
I5770
sV\u8212
I2351
sV\u7d18
I6607
sV\u731c
I418
sV\u979f
I7020
sV\u8da3
I893
sV\u4ea5
I5309
sV\u83a7
I5587
sV\u9b2c
I2261
sV\u70b1
I8426
sV\u9130
I519
sV\u5232
I4051
sV\u76b5
I7832
sV\u9734
I9635
sV\u6cb9
I1674
sV\u62bd
I1621
sV\u5dc3
I4957
sV\u7a42
I9051
sV\u9ec5
I9687
sV\u8acd
I2874
sV\u6c4e
I3946
sV\u7bd7
I9634
sV\u535c
I798
sV\u77df
I6594
sV\u945e
I8457
sV\u8a62
I2111
sV\u8066
I3943
sV\u5aed
I7421
sV\u50f1
I8650
sV\u6d78
I561
sV\u81fb
I3544
sV\u7409
I4234
sV\u9588
I4666
sV\u8b8c
I5333
sV\u6615
I4503
sV\u5b17
I7316
sV\u7896
I8579
sV\u511b
I8704
sV\u7e9a
I4805
sV\u571f
I1455
sV\u749e
I1096
sV\u8821
I2969
sV\u6aa2
I965
sV\u60a6
I1752
sV\u792b
I2816
sV\u66aa
I8356
sV\u51b0
I130
sV\u7533
I2801
sV\u92b2
I6783
sV\u6b37
I2751
sV\u8eba
I8615
sV\u673f
I9245
sV\u79c0
I658
sV\u5e45
I1021
sV\u9347
I9281
sV\u894b
I7092
sV\u6bcc
I5358
sV\u8f4f
I9083
sV\u61d0
I8416
sV\u67d4
I1442
sV\u58d6
I3511
sV\u7c59
I4004
sV\u5eda
I3382
sV\u725d
I6931
sV\u93dc
I6245
sV\u8fe4
I2550
sV\u6469
I1533
sV\u85e8
I7196
sV\u596b
I3563
sV\u5f6f
I3960
sV\u9675
I713
sV\u8c79
I3183
sV\u827d
I8151
sV\u64fe
I1498
sV\u5a00
I7919
sV\u9902
I8578
sV\u5c04
I1236
sV\u5608
I2241
sV\u6c8f
I8955
sV\u5f99
I1417
sV\u929b
I5813
sV\u701c
I8470
sV\u6a20
I6471
sV\u8ea3
I9523
sV\u6c24
I5563
sV\u80a7
I8458
sV\u6628
I2470
sV\u79ad
I6366
sV\u982c
I3726
sV\u5f2e
I6555
sV\u5132
I3762
sV\u75b5
I2289
sV\u6fb9
I2853
sV\u8e38
I3933
sV\u803c
I6611
sV\u9bc1
I6387
sV\u50c7
I4771
sV\u97c9
I3888
sV\u754a
I8388
sV\u83d1
I3969
sV\u85d5
I5379
sV\u78d7
I9246
sV\u9b56
I5034
sV\u5e58
I570
sV\u505c
I922
sV\u74df
I9448
sV\u975e
I1435
sV\u6ee3
I6285
sV\u60e7
I9370
sV\u9aeb
I6127
sV\u856a
I648
sV\u786c
I816
sV\u9cef
I3184
sV\u53f1
I3530
sV\u7474
I4896
sV\u82fb
I7949
sV\u84ff
I4049
sV\u5982
I682
sV\u7d05
I912
sV\u7709
I1693
sV\u9688
I2265
sV\u558a
I7672
sV\u690d
I1160
sV\u888c
I8366
sV\u6311
I910
sV\u6515
I8285
sV\u8494
I4283
sV\u9f19
I2761
sV\u541f
I373
sV\u779e
I2215
sV\u8b21
I3828
sV\u63a6
I9349
sV\u8729
I3654
sV\u7633
I4951
sV\u91b2
I5315
sV\u8dba
I1521
sV\u87be
I4645
sV\u9047
I2297
sV\u76c8
I2394
sV\u8a4b
I9192
sV\u68cc
I7712
sV\u62d0
I8609
sV\u8653
I6474
sV\u64d4
I3222
sV\u5bd6
I4486
sV\u7f59
I9371
sV\u9ed8
I1812
sV\u90dc
I6879
sV\u6b61
I156
sV\u8ae0
I4426
sV\u6d65
I3227
sV\u8ce4
I2595
sV\u5c6f
I1263
sV\u7fee
I1824
sV\u9371
I7476
sV\u6bf6
I9475
sV\u6dfa
I232
sV\u7f83
I6250
sV\u9802
I1949
sV\u7187
I4937
sV\u9206
I5636
sV\u5708
I4834
sV\u6b8b
I9071
sV\u6d8f
I7835
sV\u6793
I8095
sV\u8012
I2346
sV\u9997
I6402
sV\u939b
I7975
sV\u711c
I4900
sV\u959f
I1112
sV\u6b20
I3197
sV\u8fa3
I7491
sV\u6728
I205
sV\u78ad
I5421
sV\u992c
I6468
sV\u74b5
I3808
sV\u8f38
I1576
sV\u60bd
I2681
sV\u9ac1
I9439
sV\u5fc3
I143
sV\u7246
I121
sV\u96c9
I319
sV\u6e4e
I5578
sV\u82d1
I4130
sV\u6052
I3479
sV\u5f58
I4227
sV\u515c
I5478
sV\u75df
I5057
sV\u965e
I5218
sV\u8862
I2780
sV\u8266
I6787
sV\u9beb
I2824
sV\u9def
I3863
sV\u52f1
I8603
sV\u7370
I6571
sV\u97f3
I455
sV\u6f78
I3233
sV\u617c
I6356
sV\u85ff
I3003
sV\u9b80
I3146
sV\u9d84
I6867
sV\u7609
I7295
sV\u9788
I9056
sV\u4e8e
I1978
sV\u6211
I468
sV\u8594
I5633
sV\u7a96
I3224
sV\u901d
I835
sV\u769e
I6254
sV\u68a2
I3638
sV\u8629
I5637
sV\u7b2b
I7649
sV\u59ac
I3694
sV\u7d2f
I2502
sV\u90b2
I4766
sV\u6937
I8061
sV\u8ab6
I7275
sV\u633b
I8081
sV\u8cba
I4596
sV\u653f
I1066
sV\u5a41
I4059
sV\u7bc0
I1560
sV\u5c45
I420
sV\u9147
I7450
sV\u5649
I6060
sV\u69cc
I5662
sV\u63d0
I1798
sV\u5ad6
I5741
sV\u7e59
I3656
sV\u705d
I2623
sV\u91dc
I4558
sV\u56de
I639
sV\u6a61
I345
sV\u87e8
I8496
sV\u5b6b
I1383
sV\u5d6f
I3532
sV\u5773
I3661
sV\u807d
I923
sV\u66fe
I1023
sV\u5c00
I8032
sV\u9f02
I6652
sV\u7687
I1890
sV\u5008
I7936
sV\u890e
I6253
sV\u8712
I4313
sV\u9e97
I533
sV\u5999
I1124
sV\u579d
I9459
sV\u6028
I805
sV\u7fad
I9354
sV\u592e
I2608
sV\u9234
I1584
sV\u69b9
I9666
sV\u863c
I7711
sV\u9dc1
I3248
sV\u58c3
I3722
sV\u56c7
I9188
sV\u7546
I1957
sV\u8fcd
I6091
sV\u85d1
I9674
sV\u5858
I700
sV\u9b5a
I230
sV\u68e3
I2607
sV\u8f62
I4909
sV\u5fed
I7057
sV\u9aef
I970
sV\u7470
I3756
sV\u90f3
I9150
sV\u53f5
I6191
sV\u7274
I9388
sV\u8ef7
I8929
sV\u84fb
I7361
sV\u667c
I2442
sV\u5f82
I908
sV\u5586
I3884
sV\u7109
I2415
sV\u9088
I2146
sV\u6f0d
I7628
sV\u6511
I9322
sV\u8490
I4491
sV\u7d96
I7946
sV\u9919
I7510
sV\u541b
I1090
sV\u8129
I1999
sV\u7c2b
I1051
sV\u63aa
I5749
sV\u5eac
I7799
sV\u99ae
I3311
sV\u97b2
I5616
sV\u623f
I3135
sV\u81be
I3057
sV\u5d41
I3427
sV\u5b45
I8601
sV\u7ac4
I4096
sV\u5149
I47
sV\u70c8
I1044
sV\u8c4b
I8563
sV\u4f4d
I2613
sV\u6ecc
I4757
sV\u64d0
I6682
sV\u62d4
I2930
sV\u5dd6
I1403
sV\u96dc
I2390
sV\u6d61
I9626
sV\u6b65
I1538
sV\u8ae4
I5297
sS'\xe8'
I7986
sV\u5c6b
I7834
sV\u9375
I5952
sV\u6df6
I8983
sV\u8979
I9529
sV\u6bfa
I8490
sV\u61fe
I4991
sV\u9e02
I7121
sV\u7787
I6205
sV\u5108
I5993
sV\u6128
I9466
sV\u9f2c
I7769
sV\u582e
I5831
sV\u5632
I2650
sV\u873c
I8573
sV\u7e42
I6768
sV\u8ecd
I2918
sV\u684e
I3634
sV\u84d1
I4546
sV\u6652
I7208
sV\u82d5
I3649
sV\u9c56
I5631
sV\u5958
I8998
sV\u75db
I371
sV\u9a5a
I369
sV\u905e
I3579
sV\u8e62
I7259
sV\u8466
I604
sV\u9deb
I6638
sV\u826a
I8840
sV\u7570
I979
sV\u91f3
I6134
sV\u52f5
I3674
sV\u8ff7
I646
sV\u6978
I3708
sV\u85fb
I2240
sV\u677c
I3641
sV\u7c01
I3093
sV\u7a05
I4560
sV\u5486
I7846
sV\u7009
I3524
sV\u6215
I1602
sV\u5f17
I1605
sV\u6ea2
I3711
sV\u8a25
I5115
sV\u64a6
I7902
sV\u7d2b
I1712
sV\u5fac
I5625
sV\u7b2f
I8354
sV\u96b2
I6659
sV\u8cb6
I2168
sV\u653b
I392
sV\u633f
I9190
sV\u5c41
I7880
sV\u7bc4
I4329
sV\u5049
I2201
sV\u71c8
I269
sV\u4e4d
I1338
sV\u8b4f
I2223
sV\u65d0
I3785
sV\u8153
I3772
sV\u63d4
I8387
sV\u99d8
I3274
sV\u5ada
I8290
sV\u97dc
I4026
sV\u50de
I3792
sV\u6c61
I3051
sV\u6069
I1934
sV\u81e8
I101
sV\u5d6b
I6360
sV\u9471
I1228
sV\u76f2
I3047
sV\u8879
I9508
sV\u6afa
I3398
sV\u5e00
I6979
sV\u9d02
I1445
sV\u5804
I6161
sV\u7487
I6388
sV\u9706
I4819
sV\u5208
I5059
sV\u910a
I3424
sV\u688f
I3635
sV\u8b0e
I9235
sV\u6293
I8035
sV\u5b99
I4153
sV\u969b
I479
sV\u559d
I5648
sV\u6e20
I2080
sV\u8aa3
I2222
sV\u7dad
I1532
sV\u4f36
I3408
sV\u65bd
I1579
sV\u843c
I2603
sV\u7d42
I1008
sV\u54c7
I2836
sV\u7746
I5504
sV\u4ecb
I1152
sV\u714a
I9218
sV\u6b4e
I503
sV\u81d5
I9630
sV\u7cd7
I1591
sV\u5a58
I7934
sV\u76db
I1038
sV\u70df
I133
sV\u8766
I2834
sV\u9eeb
I8967
sV\u816a
I6377
sV\u7c6c
I890
sV\u98ef
I1219
sV\u7670
I4946
sV\u86fb
I2420
sV\u9e80
I7819
sV\u5d82
I3672
sV\u518a
I3469
sV\u8c8c
I2085
sV\u6115
I3710
sS'\x94'
I8019
sV\u7f96
I6875
sV\u9b19
I7050
sV\u501f
I846
sV\u739e
I6270
sV\u8925
I7101
sV\u7e2b
I415
sV\u61aa
I7831
sV\u9bae
I627
sV\u95b2
I2691
sV\u50b4
I4943
sV\u6c37
I8221
sV\u663b
I5685
sV\u89ba
I109
sV\u83be
I3703
sV\u9a43
I5479
sV\u5349
I3344
sV\u8e4b
I6074
sV\u6ccc
I5940
sV\u8253
I7726
sV\u60d4
I3718
sV\u5fd6
I6561
sV\u9ad8
I212
sV\u59da
I5047
sV\u755d
I1456
sV\u6965
I7218
sV\u6369
I5595
sV\u82e8
I5300
sV\u586f
I8959
sV\u5273
I9168
sV\u9175
I9467
sV\u6ff6
I7397
sV\u63fe
I9241
sV\u9c02
I9611
sV\u7587
I1036
sV\u5308
I4617
sV\u8a0e
I363
sV\u9d97
I3338
sV\u5a99
I9309
sV\u751c
I4417
sV\u919f
I7084
sV\u4ea1
I959
sV\u6f20
I2975
sV\u85a7
I4639
sV\u6328
I1677
sV\u9d2c
I8381
sV\u9730
I2926
sV\u9134
I3083
sV\u9ec1
I9544
sV\u5bc3
I6309
sV\u55c7
I5863
sV\u4fcb
I7203
sV\u704a
I4887
sV\u86d1
I6272
sV\u7dd7
I4918
sV\u5b58
I1569
sV\u77db
I4570
sV\u555c
I4050
sV\u71df
I315
sV\u925e
I4477
sV\u4f60
I1742
sV\u6be3
I6274
sV\u8c62
I5051
sV\u806a
I8124
sV\u5ced
I2894
sV\u50f5
I3075
sV\u6b78
I69
sV\u87fb
I749
sV\u81ff
I7774
sV\u5686
I9572
sV\u6c0d
I7052
sV\u6015
I2020
sV\u5d17
I3256
sV\u7e96
I2023
sV\u571b
I8660
sV\u789a
I8451
sV\u511f
I3335
sV\u8e21
I8431
sV\u8229
I3100
sV\u7333
I7634
sV\u8eb6
I9590
sV\u613f
I7721
sV\u82be
I6977
sV\u9b43
I5589
sV\u5249
I7042
sV\u73c8
I6332
sV\u894f
I7776
sV\u67d0
I3593
sV\u8353
I6367
sV\u61d4
I3921
sV\u5ed6
I5800
sV\u9bd8
I9636
sV\u58da
I5536
sV\u95dc
I722
sV\u52de
I433
sV\u6e61
I8152
sV\u5f6b
I2275
sV\u9c6d
I8792
sV\u596f
I7305
sV\u7aee
I3069
sV\u5373
I1198
sV\u9075
I3444
sV\u8a79
I4789
sV\u68fa
I4175
sV\u847d
I5869
sV\u62fe
I663
sV\ue000
I9685
sV\u6604
I9082
sV\u6c08
I4371
sV\u568f
I5970
sV\u7810
I7682
sV\u9f95
I4741
sV\u6599
I2891
sV\u871a
I4530
sV\u9322
I1428
sV\u77a5
I5181
sV\u9926
I7723
sV\u5c28
I6752
sV\u80ab
I4225
sV\u9f2a
I2092
sV\u86af
I6151
sV\u8cb3
I5024
sV\u6b32
I32
sV\u4fb5
I647
sV\u92b7
I1063
sV\u7136
I643
sV\u98bb
I5080
sV\u773a
I2379
sV\u7d3e
I8161
sV\u8c48
I1294
sV\u70cb
I7847
sV\u7cd3
I4047
sV\u85d9
I6048
sV\u6458
I2273
sV\u4edf
I9413
sV\u91e1
I4321
sV\u7664
I7888
sV\u7c68
I6149
sV\u63ed
I3185
sV\u69f1
I2392
sV\u6ff5
I2521
sV\u75f9
I6798
sV\u977a
I9341
sV\u9d7e
I1939
sV\u8403
I2941
sV\u8a07
I9133
sV\u6986
I1362
sV\u900b
I2200
sV\u530d
I6590
sV\u758e
I4449
sV\u9c13
I6541
sV\u7b92
I6837
sV\u5f15
I675
sV\u6e1f
I6518
sV\u90a0
I7439
sV\u96a4
I7181
sV\u5faa
I926
sV\u832d
I4297
sV\u62ac
I8249
sV\u68b0
I5887
sV\u8f35
I9598
sV\u6eb4
I6653
sV\u5237
I5200
sV\u74b8
I8681
sV\u9b3d
I8984
sV\u7abc
I5429
sV\u6141
I7225
sV\u83c2
I7478
sV\u6745
I2088
sV\u734d
I6320
sV\u52cc
I7562
sV\u7f55
I3228
sV\u5ed4
I9446
sV\u8257
I7088
sV\u885b
I978
sV\u67da
I3096
sV\u8e5f
I4410
sV\u6dde
I6818
sV\u9463
I5016
sV\u79e6
I945
sV\u5d69
I3042
sV\u606b
I3620
sV\u666f
I1816
sV\u88f0
I9200
sV\u6c73
I9393
sV\u7277
I6649
sV\u51f6
I5288
sV\u57fa
I339
sV\u9afc
I7308
sV\u7e7f
I8859
sV\u5dfe
I679
sV\u6100
I4749
sV\u8c89
I3577
sV\u518b
I7289
sV\u928d
I7205
sV\u5d93
I6365
sV\u9e95
I5820
sV\u8016
I8228
sV\u6499
I8286
sV\u861a
I674
sV\u6a9d
I5219
sV\u76a5
I7816
sV\u9826
I9165
sV\u5d28
I6992
sV\u87af
I2476
sV\u8db3
I553
sV\u6a32
I8911
sV\u7c3e
I1419
sV\u65c3
I2962
sV\u71cb
I3431
sV\u9950
I9402
sV\u9f54
I8181
sV\u6558
I5832
sV\u8add
I6363
sV\u6b5c
I4708
sV\u4fdf
I2345
sV\u90e1
I489
sV\u55e3
I1060
sV\u5be7
I838
sV\u9ce9
I4627
sV\u7d68
I9206
sV\u62ed
I2381
sV\u68f1
I5508
sV\u8a72
I4294
sV\u6ef5
I7446
sV\u9076
I2280
sV\u7afd
I1330
sV\u8b07
I5296
sV\u910b
I2214
sV\u970f
I2679
sV\u7a92
I4450
sV\u5e15
I4391
sV\u8b9c
I5939
sV\u91a0
I6748
sV\u7523
I1073
sV\u58a6
I6228
sV\u63ac
I4770
sV\u8831
I5901
sV\u69b0
I9272
sV\u8e35
I2050
sV\u6fb4
I7269
sV\u6041
I4836
sV\u8eca
I975
sV\u9ad2
I3644
sV\u7e55
I3730
sV\u66da
I8924
sV\u8f5f
I1868
sV\u6cde
I8696
sV\u72e2
I7198
sV\u5c69
I2382
sV\u616b
I7685
sV\u676f
I446
sV\u89f0
I8814
sV\u8ff4
I1267
sV\u7377
I5128
sV\u50f6
I8145
sV\u56fa
I1056
sV\u7f7f
I7185
sV\u6200
I1517
sV\u8585
I6723
sV\u528b
I6475
sV\u918d
I4068
sV\u700c
I5860
sV\u548f
I3288
sV\u9b91
I2758
sV\u7c14
I7023
sV\u851a
I3724
sV\u699d
I6413
sV\u8f1e
I2041
sV\u73a1
I9219
sV\u5220
I7577
sV\u9122
I8900
sV\u75a5
I6918
sV\u7fa9
I957
sV\u5e28
I6834
sV\u82ab
I5593
sV\u84af
I3588
sV\u672e
I5472
sV\u7336
I630
sV\u9abb
I6699
sV\u753a
I4010
sV\u7f3e
I5272
sV\u8e48
I2799
sV\u904c
I9409
sV\u74cf
I3441
sV\u574e
I195
sV\u9c54
I7742
sV\u89dd
I8836
sV\u93e1
I45
sV\u95e5
I4323
sV\u7464
I5265
sV\u876e
I4933
sV\u8972
I4127
sV\u6df5
I1492
sV\u77f9
I6848
sV\u587c
I6769
sV\u9f7e
I6718
sV\u8603
I7550
sV\u6182
I840
sV\u6b86
I2204
sV\u4f09
I7744
sV\u6d8a
I5728
sV\u940f
I6569
sV\u778e
I4573
sV\u5d15
I3616
sV\u6017
I6711
sV\u8698
I8600
sV\u6a1b
I4259
sV\u7623
I7166
sV\u51a2
I4348
sV\u7827
I810
sV\u5ba6
I1081
sV\u9ea8
I8970
sV\u5daa
I4021
sV\u4e33
I7077
sV\u6cb4
I6182
sV\u9739
I1665
sV\u76b8
I4698
sV\u993d
I5571
sV\u78bc
I8986
sV\u5c3f
I9067
sV\u81c2
I4149
sV\u6545
I882
sV\u97ce
I9401
sV\u7b51
I1633
sV\u99d2
I2211
sV\u7d55
I901
sV\u63d6
I2494
sV\u8a5b
I5736
sV\u6fde
I2161
sV\u9663
I4361
sV\u9867
I1985
sV\u7be6
I1659
sV\u5f69
I1838
sV\u7dea
I7806
sV\u646f
I6681
sV\u8cf4
I2329
sV\u53f6
I6524
sV\u55fa
I8774
sV\u98fc
I6599
sV\u6504
I2149
sV\u8e89
I8721
sV\u6f08
I8304
sV\u558f
I7483
sV\u7b10
I9183
sV\u5f93
I3117
sV\u7d14
I1915
sV\u8216
I8577
sV\u689d
I660
sV\u8e1e
I3058
sV\u5320
I1574
sV\u9022
I149
sV\u5524
I8504
sV\u5f28
I1099
sV\u83ab
I1478
sV\u85af
I3566
sV\u6832
I8335
sV\u7236
I2210
sV\u9dbf
I6865
sV\u7e3e
I1423
sV\u8340
I3811
sV\u914c
I2562
sV\u75cf
I6374
sV\u564e
I6928
sV\u5852
I6933
sV\u9d54
I9178
sV\u86d9
I3105
sV\u88dd
I767
sV\u7360
I3491
sV\u7564
I6889
sV\u59e7
I9502
sV\u7f68
I4265
sV\u8872
I2352
sV\u9276
I6302
sV\u78fd
I2563
sV\u597c
I7901
sV\u8703
I5158
sV\u8907
I1948
sV\u4e09
I275
sV\u500d
I2332
sV\u768e
I1475
sV\u5a11
I2393
sV\u9f13
I227
sV\u6117
I8790
sV\u8798
I5579
sV\u6b1b
I8850
sV\u6d1f
I5311
sV\u4e9e
I3535
sV\u95a4
I4739
sV\u7927
I7016
sV\u5caa
I7606
sV\u61ac
I6601
sV\u8a31
I360
sV\u6db4
I6420
sV\u5137
I6119
sV\u9639
I9330
sV\u983d
I2450
sV\u79bc
I8921
sV\u5d3f
I7302
sV\u6241
I597
sV\u8cca
I1653
sV\u51cc
I2068
sV\u96ce
I6026
sV\u5bd0
I225
sV\u7c55
I7373
sV\u5dd4
I2963
sV\u62d6
I4891
sV\u8b5b
I9692
sV\u64da
I1057
sV\u5261
I4182
sV\u9763
I9214
sV\u5465
I8526
sV\u7ae6
I3555
sV\u5e69
I7228
sV\u636b
I4083
sV\u81ec
I5856
sV\u97f8
I6726
sV\u54fa
I669
sV\u99fc
I9097
sV\u8385
I9197
sV\u6204
I8889
sV\u8989
I7345
sV\u548b
I2039
sV\u978d
I1260
sV\u9d91
I4422
sV\u5893
I1187
sV\u7a14
I3923
sV\u6199
I6196
sV\u891e
I8327
sV\u5420
I3337
sV\u9722
I4967
sV\u5224
I3280
sV\u9d26
I4974
sV\u79a9
I2138
sV\u5828
I6103
sV\u9b2a
I7351
sV\u6f32
I587
sV\u96b7
I8631
sV\u733a
I8240
sV\u5fbd
I1055
sV\u793e
I517
sV\u6ec7
I9090
sV\u964c
I1254
sV\u514e
I9028
sV\u9c50
I7632
sV\u78d3
I8230
sV\u9a54
I8958
sV\u81d9
I3781
sV\u6e5c
I4008
sV\u95e1
I3869
sV\u7460
I5847
sV\u50e3
I6958
sV\u5ee7
I7603
sV\u7868
I8691
sV\u816e
I5378
sV\u6df1
I213
sV\u71f9
I7073
sV\u7ffd
I7727
sV\u5e7c
I5615
sV\u8003
I2118
sV\u6b8a
I2019
sV\u570d
I1176
sV\u5d11
I3881
sV\u9813
I1241
sV\u8098
I789
sV\u6c1b
I3392
sV\u6a1f
I6318
sV\u7023
I4788
sV\u57a2
I2301
sV\u98a8
I102
sV\u5637
I6063
sV\u9139
I8188
sV\u5c3b
I6029
sV\u9f3d
I9225
sV\u87c2
I9314
sV\u774d
I5503
sV\u91ce
I340
sV\u5cd0
I7533
sV\u8657
I1758
sV\u65d6
I5792
sV\u63da
I1487
sV\u9063
I854
sV\u77e2
I4120
sV\u7de6
I9321
sV\u5969
I4230
sV\u7bea
I4960
sV\u86ec
I7323
sV\u626f
I7322
sV\u8af4
I7631
sV\u55f6
I8353
sV\u90f8
I4359
sV\u9efc
I986
sV\u7a7f
I123
sV\u6500
I1719
sV\u6908
I9543
sV\u558b
I4702
sV\u968d
I6687
sV\u7d10
I948
sV\u5993
I2968
sS'\xaf'
I7988
sV\u6e9d
I4089
sV\u78a9
I2096
sV\u85ab
I3128
sV\u9a2a
I8641
sV\u6e32
I8811
sV\u7436
I5599
sV\u9dbb
I2543
sV\u723a
I5570
sV\u61c3
I3116
sV\u8344
I5771
sV\u504e
I6730
sV\u9b54
I1660
sV\u80d9
I4334
sV\u6158
I2865
sV\u8edd
I9008
sV\u6f5c
I755
sV\u98e9
I8873
sV\u7968
I7659
sV\u66ed
I8488
sV\u806e
I1825
sV\u6cf1
I3709
sV\u8e72
I1269
sV\u70f9
I3859
sV\u5178
I1140
sV\u927a
I5302
sV\u5f7c
I738
sV\u6c86
I4787
sV\u560d
I9187
sV\u708e
I1257
sV\u5c11
I1186
sV\u9913
I4665
sV\u7e92
I3023
sV\u6717
I73
sV\u8198
I8241
sV\u6d1b
I194
sV\u8f9c
I2663
sV\u95a0
I8567
sV\u56a2
I5237
sV\u99a8
I2428
sV\u5aaa
I7462
sV\u862d
I1441
sV\u71b8
I8114
sV\u5b3f
I8316
sV\u6245
I6878
sV\u6849
I6537
sV\u90ce
I581
sV\u7c51
I7415
sV\u9ed2
I7761
sV\u5bd4
I4322
sV\u8757
I5060
sV\u62da
I3097
sV\u4e5d
I1119
sV\u8b5f
I4923
sV\u9163
I2705
sV\u5265
I2841
sV\u9f67
I547
sV\u7ce6
I7733
sV\u7aea
I6991
sV\u87ec
I621
sV\u8df0
I8157
sV\u6973
I8658
sV\u4ef2
I2606
sV\u52fa
I4742
sV\ue004
I9680
sV\u7e10
I7642
sV\u7814
I3906
sV\u811a
I3194
sV\u8b1e
I7094
sV\u80af
I428
sV\u6d32
I843
sV\u7736
I8749
sV\u9ebb
I730
sV\u5dbd
I1645
sV\u98bf
I7489
sV\u8640
I3164
sV\u4f46
I718
sV\u8a48
I7849
sV\u944c
I9557
sV\u70cf
I126
sV\u5d52
I8943
sV\u9854
I725
sV\u6258
I3774
sV\u8ddd
I3622
sV\u6c5c
I3046
sV\u97e1
I4797
sV\u7660
I9512
sV\u52e3
I7381
sV\u7064
I8884
sV\u7a68
I9244
sV\u65ed
I3658
sV\u6ff1
I3548
sV\u9776
I7905
sV\u5278
I4256
sV\u917a
I6622
sV\u5c7c
I4473
sV\u6582
I1022
sV\u6f86
I2246
sV\u900f
I1664
sV\u738e
I8841
sV\u5915
I92
sV\u6417
I5470
sV\u8298
I5545
sV\u6e1b
I2518
sV\u681f
I5461
sV\u96a0
I628
sV\u7c27
I1746
sV\u9aa8
I554
sV\u852d
I2591
sV\u6eb0
I8429
sV\u8935
I7046
sV\u68b4
I8539
sV\u5437
I6020
sV\u9d3d
I5132
sV\u7cbc
I5520
sS'\xa1'
I8020
sV\u85c2
I5389
sV\u8fc6
I8205
sV\u6b49
I1561
sV\u54cc
I8520
sV\u5ed0
I5967
sV\u7955
I3305
sV\u8457
I1434
sV\u8e5b
I9564
sV\u5761
I2611
sV\u75e2
I7885
sV\u5165
I564
sV\u9c67
I9627
sV\u7fe6
I4581
sV\u5b69
I2689
sV\u79ea
I2709
sV\u84ec
I216
sV\u606f
I248
sV\u8ef0
I8166
sV\u88f4
I1001
sV\u57f6
I9458
sV\u92f8
I5044
sV\u7e7b
I7585
sV\u51fa
I65
sV\u9cfc
I9221
sV\u787f
I9412
sV\u6700
I1488
sV\u8085
I2427
sV\u6b08
I8761
sV\u578b
I5641
sV\u750c
I3136
sV\u518f
I7103
sV\u9e91
I6439
sV\u5b93
I4381
sV\u8616
I4279
sV\u76a1
I7538
sV\u5720
I5788
sV\u5124
I5746
sV\u7aa9
I4746
sV\u87ab
I6368
sV\u622e
I2225
sV\u6c32
I3212
sV\u95b7
I9239
sV\u52b9
I6585
sV\u703a
I3561
sV\u99bf
I4574
sV\u7a3e
I9077
sV\u8740
I5966
sV\u6dc7
I5684
sV\u71cf
I9292
sV\u524e
I4830
sV\u9954
I6342
sV\u82d9
I7516
sV\u6358
I7955
sV\u4fdb
I2867
sV\u7760
I3393
sV\u53e3
I992
sV\u7164
I4224
sV\u5de7
I383
sV\u9ae9
I7407
sV\u64ed
I7938
sV\u826e
I2249
sV\u4f70
I7257
sV\u9676
I754
sV\u72f9
I4033
sV\u5378
I4813
sV\u907a
I406
sV\u5d7c
I7800
sV\u8303
I2910
sV\u6e86
I4661
sV\u970b
I9275
sV\u540d
I332
sV\u910f
I8218
sV\u5e11
I6207
sV\u7c92
I2840
sV\u5815
I4001
sV\u8398
I1863
sV\u97a0
I4215
sV\u54a2
I6503
sV\u91a4
I1644
sV\u5ea6
I163
sV\u58aa
I8486
sV\u65ac
I2919
sV\u8835
I6755
sV\u69b4
I4955
sV\u9239
I8725
sV\u6641
I2323
sV\u84c2
I5393
sV\u88ca
I656
sV\u55cc
I4659
sV\u59d4
I1138
sV\u66d6
I6190
sV\u60da
I6187
sV\u895f
I571
sV\u6ade
I8963
sV\u74e2
I1170
sV\u5065
I2712
sV\u8ff0
I2150
sV\u6b73
I3118
sV\u89f4
I465
sV\u7f7b
I7149
sV\u9dfc
I8187
sV\u797f
I2907
sV\u8981
I1500
sV\u6800
I8330
sV\u8589
I3782
sV\u588b
I3920
sV\u7a0c
I5492
sV\u5e8f
I1895
sV\u9191
I2492
sV\u6d99
I2830
sV\u8f1a
I8766
sV\u851e
I5938
sV\u79a1
I5532
sV\u5820
I3695
sV\u9b22
I435
sV\u5e24
I5516
sV\u88ab
I1007
sV\u972a
I5280
sV\u6d2e
I7179
sV\u6332
I4532
sV\u9ab7
I8511
sV\u7f3a
I2635
sV\u753e
I8276
sV\u8840
I2242
sV\u8e44
I2542
sV\u62c7
I8042
sV\u78cb
I5756
sV\u9a4c
I7922
sV\u5d4e
I7168
sV\u9050
I1827
sV\u74d3
I8598
sV\u5352
I1151
sV\u9654
I3317
sV\u8dd9
I8855
sV\u83dd
I7638
sV\u99e1
I4512
sV\u5ce3
I5270
sV\u7468
I7135
sV\u8d6e
I9099
sV\u67f5
I6957
sV\u7df9
I6616
sV\u73fd
I8750
sV\u6b82
I7054
sV\u8207
I466
sV\u980b
I1549
sV\u7392
I7694
sV\u6a17
I5538
sV\u8c98
I9694
sV\u601b
I6557
sV\u661f
I478
sV\u7c23
I5937
sV\u5ba2
I147
sV\u9ea4
I4883
sV\u51a6
I8407
sV\u8b2d
I6542
sV\u8131
I2350
sV\u60b0
I1436
sV\u66b4
I1218
sV\u9d39
I7311
sV\u563f
I7059
sV\u4ec4
I3025
sV\u81c6
I1545
sV\u6549
I9144
sV\u87ca
I4515
sV\u7b4d
I1451
sV\u5acc
I2290
sV\u7151
I2565
sV\u8a57
I7505
sV\u69d6
I5238
sV\u865f
I204
sV\u5961
I2203
sV\u9c63
I3018
sV\u5f65
I5050
sV\u9267
I6237
sV\u71e6
I4064
sV\u6e6f
I1718
sV\u6473
I5691
sV\u9cf8
I7801
sV\u5ffa
I6345
sV\u92fc
I7189
sV\u55fe
I4663
sV\u8881
I2762
sV\u6900
I3996
sV\u8e85
I3037
sV\u9091
I956
sV\u5593
I5569
sV\u9695
I3517
sV\u8816
I5261
sV\u6c99
I259
sV\u629d
I7517
sV\u9a22
I8764
sV\u74a9
I8819
sV\u962a
I3864
sV\u8faf
I2145
sV\u6232
I1353
sV\u5cb9
I8438
sV\u91bb
I3825
sV\u7e3a
I7169
sV\u97bf
I3889
sV\u8f44
I4202
sV\u8548
I6744
sV\u79cb
I59
sV\u9b4c
I8409
sV\u7fcf
I9547
sV\u5c4e
I3223
sV\u8cd9
I1769
sV\u635c
I7344
sV\u98e1
I1770
sV\u7960
I2498
sV\u9ee5
I1245
sV\u7f64
I8902
sV\u60f1
I1961
sV\u8272
I42
sV\u66f5
I7784
sV\u5d78
I4958
sV\u9e7a
I2680
sV\u72fd
I5719
sV\u537c
I7145
sV\u947e
I2698
sV\u8307
I7153
sV\u7292
I7076
sV\u611b
I1107
sV\u671f
I171
sV\u5aa2
I8088
sV\u7327
I9534
sV\u95a8
I3001
sV\u8a2d
I1261
sV\u4f2f
I1654
sV\u7db8
I1134
sV\u513b
I2881
sV\u73bc
I7543
sV\u573f
I9369
sV\u6841
I5541
sV\u8ac2
I2227
sV\u4fc4
I1524
sV\u80c6
I6310
sV\u7a4d
I1019
sV\u5bcc
I996
sV\u7051
I2788
sV\u92d2
I2309
sV\u68d6
I6457
sV\u6eda
I7979
sV\u875f
I4674
sV\u7ae2
I7127
sV\u9367
I6554
sV\u696b
I2073
sV\u76ea
I4161
sV\u6f6f
I4368
sV\u6573
I9588
sS'<EOP>'
p3
I9695
sV\u9df8
I8572
sV\u5efa
I2696
sV\u777f
I4683
sV\u8b81
I5069
sV\u8d85
I2787
sV\u6c04
I6729
sV\u780c
I862
sV\u5c8f
I4390
sV\u7210
I219
sV\u8b16
I6949
sV\u4e18
I300
sV\u619d
I7273
sV\u871e
I6774
sV\u7ba1
I1091
sV\u5a20
I7743
sV\u5c24
I2578
sV\u9326
I3035
sV\u77a9
I5443
sV\u8caf
I3604
sV\u86b3
I9380
sV\u98b7
I7355
sV\u5fb9
I1529
sV\u7d3a
I5055
sV\u51bd
I3264
sV\u773e
I4713
sV\u6ec3
I6303
sV\u60c7
I3805
sV\u8648
I6637
sV\u7acb
I1698
sV\u984c
I654
sV\u5f4e
I1100
sV\u5152
I424
sV\u6e58
I1998
sV\u81dd
I7770
sV\u7a60
I5332
sV\u5ee3
I1253
sV\u9de5
I6203
sV\u7c64
I3895
sV\u50e7
I84
sV\u69ed
I3836
sV\u65f5
I8954
sV\u9b76
I8038
sV\u7ff9
I2940
sV\u5e78
I1891
sV\u6982
I2048
sV\u8007
I7874
sV\u9a0b
I8610
sV\u7f8e
I253
sV\u7192
I4625
sV\u6817
I271
sV\u621b
I4806
sV\u7e23
I505
sV\u7027
I6493
sV\u53a6
I4520
sV\u96a8
I207
sV\u55aa
I1681
sV\u892d
I4972
sV\u68ac
I9257
sV\u8331
I5408
sV\u62b0
I9442
sV\u523b
I2059
sV\u913d
I6621
sV\u543f
I7581
sV\u83c6
I8217
sV\u6749
I1971
sV\u58cc
I7335
sV\u8857
I3007
sV\u6bd6
I5208
sV\u4f59
I3303
sV\u6dda
I530
sV\u67de
I6317
sV\u5769
I8433
sV\u6a6b
I1347
sV\u4fee
I1542
sV\u6673
I6963
sV\u84f4
I3813
sV\u5bf6
I1380
sV\u747f
I8209
sV\u6b00
I7897
sV\u4f83
I4065
sV\u8c85
I4556
sV\u6d04
I3919
sV\u6708
I74
sV\u5b8b
I3247
sV\u790c
I8948
sV\u9291
I6046
sV\u5793
I4557
sV\u7514
I4609
sV\u8a16
I5286
sV\u609d
I8675
sV\u861e
I3647
sV\u7ca5
I556
sV\u5d24
I5883
sV\u9226
I5030
sV\u5728
I38
sV\u8daf
I4733
sV\u87b3
I5868
sV\u6032
I7294
sV\u93bb
I3910
sV\u7c3a
I8155
sV\u95bf
I5643
sV\u6fc3
I1940
sV\u61c7
I5026
sV\u7bcb
I2672
sV\u994c
I2706
sV\u77d3
I7939
sV\u6f58
I1121
sV\u80dd
I4268
sV\u9ae1
I8551
sV\u7b60
I2272
sV\u9ce5
I93
sV\u96e9
I5486
sV\u7768
I3492
sV\u8e6e
I6657
sV\u62f1
I925
sV\u8072
I168
sV\u70fd
I3696
sV\u517c
I495
sV\u8f03
I2618
sV\u8107
I6691
sV\u6286
I6147
sV\u9b0b
I8707
sV\u7e8e
I8739
sV\u5211
I1141
sV\u9713
I3370
sV\u7092
I8293
sV\u5415
I4236
sV\u819c
I4905
sV\u651f
I6505
sV\u58a2
I9160
sV\u882d
I6578
sV\u8435
I5971
sV\u5937
I629
sV\u7fb8
I1016
sV\u88c2
I2843
sV\u6649
I3032
sV\u84ca
I5164
sV\u9ece
I2531
sV\u7455
I2288
sV\u55d4
I4452
sV\u6ad6
I9653
sV\u4e59
I4228
sV\u6cda
I3666
sV\u78e2
I8434
sV\u5c65
I1797
sV\u9167
I2559
sV\u5669
I7187
sV\u6d6f
I5954
sV\u83f0
I3690
sV\u6773
I632
sV\u85f4
I2506
sV\u5af6
I9617
sV\u737b
I1809
sV\u757f
I2729
sV\u8d81
I1710
sV\u5c8b
I8530
sV\u9f8d
I297
sV\u7e0c
I9400
sV\u9591
I1785
sV\u8d16
I4589
sV\u8b1a
I6118
sV\u679d
I350
sV\u811e
I8720
sV\u5c20
I6238
sV\u5028
I8165
sV\u8cab
I1465
sV\u692e
I8178
sV\u59b9
I2744
sV\u68c3
I7565
sV\u8a44
I7252
sV\u66c7
I1505
sV\u594e
I4060
sV\u70d3
I9291
sV\u4ed7
I3129
sV\u665c
I8099
sV\u7c60
I66
sV\u7a64
I7428
sV\u7068
I7820
sV\u896e
I6899
sV\u65f1
I3281
sV\u63f5
I4277
sV\u9d76
I5061
sV\u5878
I9004
sV\u8803
I5041
sV\u6f82
I6432
sV\u8607
I2389
sV\u6586
I6031
sV\u9c0b
I9063
sV\u638a
I7262
sV\u9a0f
I3861
sV\u798e
I8092
sV\u9013
I8623
sV\u5315
I4104
sV\u6e17
I9614
sV\u621f
I2037
sV\u7627
I3759
sV\u55a6
I6658
sV\u90a8
I8898
sV\u53aa
I6462
sV\u8f2d
I8337
sV\u64b0
I4878
sV\u8335
I3680
sV\u5e37
I1420
sV\u543b
I4451
sV\u973d
I1484
sV\u6d41
I451
sV\u8fc2
I1447
sV\u6b45
I8119
sV\u6149
I8985
sV\u83ca
I626
sV\u7f4d
I3775
sV\u5ecc
I6832
sV\u97d2
I8894
sV\u52d4
I8213
sV\u6dd6
I5035
sV\u845b
I1231
sV\u6bda
I8775
sV\u825f
I8358
sV\u61de
I8830
sV\u9863
I9489
sV\u5b65
I2216
sV\u75e6
I9236
sV\u5169
I1013
sV\u73ea
I4353
sV\u84f0
I8206
sV\u82f4
I3975
sV\u5bfa
I79
sV\u727f
I9155
sV\u51fe
I9025
sV\u8a85
I2137
sV\u6b04
I766
sV\u8089
I1211
sV\u6108
I1559
sV\uff0c
I5
sV\u5b8f
I2122
sV\u5193
I8518
sV\u669d
I471
sV\u801e
I8635
sV\u8dab
I6171
sV\u4ead
I1634
sV\u682e
I9217
sV\u81b3
I4301
sV\u95bb
I1744
sV\u7a3a
I9270
sV\u703e
I2692
sV\u69c3
I2087
sV\u4e42
I5009
sV\u7dcb
I6169
sV\u9354
I4895
sV\u4fd7
I380
sV\u88d9
I1370
sV\u6958
I9346
sV\u675c
I1229
sV\u59e3
I7111
sV\u7b64
I5484
sV\u7168
I3085
sV\u886e
I1005
sV\u5978
I5422
sV\u577c
I1992
sV\u8707
I8053
sV\u628a
I1739
sV\u788e
I3844
sV\u5411
I475
sV\u8998
I4995
sV\u651b
I8034
sV\u631f
I4340
sV\u9da0
I4282
sV\u7727
I8355
sV\u54a6
I9286
sV\u91a8
I6015
sV\u52aa
I3297
sV\u6fac
I8971
sV\u8431
I4731
sV\u65b0
I24
sV\u8235
I9361
sV\u5f37
I1556
sV\u9839
I4544
sV\u963d
I5929
sV\u533f
I4709
sV\u6c41
I5527
sV\u6a45
I6047
sV\u84c6
I8309
sV\u6049
I8584
sV\u5fcc
I1106
sV\u7451
I7400
sV\u96d2
I4942
sV\u53d4
I1067
sV\u8f57
I7099
sV\u6cd6
I8278
sV\u6ada
I5462
sV\u5c61
I5682
sV\u9767
I6081
sV\u74e6
I1496
sV\u6173
I4373
sV\u83f4
I4393
sV\u7f77
I1316
sV\u5cf6
I3225
sV\u99f8
I3837
sV\u5afa
I3682
sV\u50fe
I7862
sV\u8389
I5758
sV\u6208
I1910
sV\u5e8b
I4147
sV\u7c0c
I7841
sV\u7610
I8208
sV\u5293
I6023
sV\u7014
I9659
sV\u891a
I6349
sV\u659d
I4795
sV\u831e
I8680
sV\u7fa1
I3851
sV\u5824
I650
sV\u73a9
I2279
sV\u8eab
I366
sV\u82b3
I31
sV\u6532
I7027
sV\u7f36
I3967
sV\u5bb9
I30
sV\u96bb
I4747
sV\u793a
I2121
sV\u733e
I5686
sV\u8e40
I4478
sV\u6ac3
I8670
sV\u8844
I4893
sV\u64c7
I2278
sV\u78cf
I9649
sV\u9650
I641
sV\u9054
I2660
sV\u6a58
I3095
sV\u85dd
I1819
sV\u5ae3
I5313
sV\u7864
I7410
sV\u67f1
I1872
sV\u61f5
I5582
sV\u9f76
I7714
sV\u7bf9
I7265
sV\u547c
I900
sV\u937e
I1847
sV\u4f01
I5866
sV\u8a03
I3950
sV\u6d82
I5054
sV\u8407
I6797
sV\u9e0b
I8853
sV\u618a
I4385
sV\u5d0d
I6946
sV\u980f
I3019
sV\u7b8e
I2984
sV\u5711
I7470
sV\u5115
I2789
sV\u4f96
I8529
sV\u8a98
I5979
sV\u849c
I3245
sV\u5da2
I5071
sV\u7427
I8787
sV\u4e2b
I5039
sV\u51aa
I8071
sV\u6cac
I6540
sV\u60b4
I3258
sV\u7ab8
I6179
sV\u563b
I4966
sV\u6f41
I841
sV\u4ec0
I4006
sV\u8dc2
I6489
sV\u6945
I7229
sV\u87c6
I4869
sV\u6349
I1651
sV\u81ca
I5806
sV\u7d4d
I7417
sV\u95d2
I3621
sV\u7155
I8342
sV\u8c57
I3438
sV\u865b
I1240
sV\u5f61
I8715
sV\u5965
I1982
sV\u6e6b
I4186
sV\u8cec
I8893
sV\u686f
I9202
sV\u6273
I4357
sV\u767b
I638
sV\u8e81
I3329
sV\u6308
I2271
sV\u5f8b
I853
sV\u9691
I9132
sV\u5393
I5180
sV\u9095
I2016
sV\u8e16
I6198
sV\u881a
I7967
sV\u649d
I4668
sV\u821e
I449
sV\u5924
I4776
sV\u89af
I4865
sV\u7e36
I3302
sV\u54bd
I3363
sV\u91bf
I6261
sV\u723e
I1093
sV\u8f40
I9493
sV\u8944
I2723
sV\u8348
I8275
sS'\x8c'
I7996
sV\u73d3
I7159
sV\u9154
I8180
sV\u6b58
I3048
sV\u98e5
I6523
sV\u92e9
I4845
sV\u7368
I653
sV\u8a6e
I5417
sV\u60f5
I7951
sV\u7af9
I226
sV\u5b78
I1077
sV\u557c
I918
sV\u4e01
I1609
sV\u6c82
I4743
sV\u8507
I9668
sV\u5c0d
I487
sV\u5611
I8547
sV\u5015
I7574
sV\u6d17
I2398
sV\u671b
I255
sV\u859c
I676
sV\u611f
I566
sV\u9fa0
I5043
sV\u5ca2
I7526
sV\u56a6
I6114
sV\u6dac
I7266
sV\u67b0
I1178
sV\u5d37
I5096
sV\u7bb8
I5796
sV\u573b
I4756
sV\u75bc
I4599
sV\u4fc0
I8931
sV\u8cc2
I6980
sV\u6845
I6414
sV\u86c6
I4752
sV\u6249
I50
sV\u7c4d
I1433
sV\u5dcc
I8252
sV\u7055
I5325
sV\u875b
I9093
sV\u68da
I6613
sV\u5e61
I3872
sV\u7ce2
I6061
sV\u76e6
I8445
sV\u5269
I5245
sV\u6f6b
I9066
sV\u8dec
I2589
sV\u696f
I6753
sV\u81f4
I1139
sV\u5ef6
I809
sV\u58fa
I786
sV\u52fe
I2163
sV\u9181
I2793
sV\u9785
I4458
sV\u9d89
I5391
sV\u620c
I4792
sV\u9116
I8344
sV\u7b9d
I5175
sV\u5a1c
I1778
sV\u9d1e
I4822
sV\u8322
I6816
sV\u8926
I5644
sV\u8f2a
I1502
sV\u53ad
I144
sV\u5fb5
I3432
sV\u82b7
I1371
sV\u6136
I9501
sV\u673a
I7281
sV\u6d3e
I4218
sV\u9644
I3667
sV\u7ac7
I3665
sV\u60cb
I4192
sV\u5f4a
I2315
sV\u66cf
I6304
sV\u6cd3
I4308
sV\u8e54
I5153
sV\u52d7
I6563
sV\u7458
I8633
sV\u7a5c
I5828
sV\u5edf
I308
sV\u81e1
I7772
sV\u6060
I8468
sV\u6664
I1418
sV\u6c68
I3686
sV\u73ed
I2173
sV\u5e74
I246
sV\u8176
I9123
sV\u5101
I5048
sV\u9403
I3683
sV\u7986
I7599
sV\u800b
I2688
sV\u7f8a
I283
sV\u7217
I7357
sV\u7e1f
I5807
sV\u5d9e
I9282
sV\u86a4
I2504
sV\u6a27
I9113
sV\u8ca8
I4363
sV\u502b
I985
sV\u72ac
I2250
sV\u562f
I2388
sV\u9931
I3546
sV\u4e3f
I9094
sV\u7141
I8757
sV\u7745
I7865
sV\u634d
I6494
sV\u85ce
I4346
sV\u4ed4
I5857
sV\u9257
I5672
sV\u71d6
I6756
sV\u5559
I8134
sV\u985b
I1548
sV\u77da
I3339
sV\u5b5d
I1105
sV\u8463
I2324
sV\u69e6
I9624
sV\u706b
I134
sV\u6fea
I5002
sV\u766f
I1155
sV\u98f0
I8685
sV\u7c73
I1226
sV\u9ef4
I9332
sV\u8afc
I5716
sV\u9081
I1979
sV\u5583
I5268
sV\u9685
I2074
sV\u7704
I2995
sV\u5b87
I1889
sV\u7d08
I4722
sV\u828d
I5553
sV\u8e95
I4888
sV\u6f14
I4850
sV\u9016
I2587
sV\u91ab
I2283
sV\u8e2a
I8440
sV\u52ad
I5070
sV\u742e
I3372
sV\u7a32
I8777
sV\u5eb5
I734
sV\u89bb
I5704
sV\u663a
I8891
sV\u6c3e
I7546
sV\u9744
I633
sV\u7bc7
I1884
sV\u61cb
I3810
sV\u67cf
I1192
sV\u8f54
I3332
sV\u53d7
I785
sV\u80e1
I1643
sV\u536c
I7024
sV\u5f74
I5126
sV\u8076
I7654
sV\u867a
I5187
sV\u6afd
I8487
sV\u7282
I1452
sV\u5605
I2812
sV\u9b07
I9417
sV\u7886
I7810
sV\u5c09
I2157
sV\u7e8a
I5235
sV\u8d13
I6155
sV\u4e15
I4493
sV\u7317
I2955
sV\u5096
I3519
sV\u9598
I7759
sV\u791b
I9427
sV\u569a
I6501
sV\uff1f
I9010
sV\u5c9e
I7301
sV\u81a0
I3293
sV\u6523
I3275
sV\u8da8
I1568
sV\u572f
I6630
sV\u79b0
I2720
sV\u8439
I9351
sV\u65b8
I5534
sV\u6bbc
I4945
sV\u51c0
I3253
sV\u92c2
I7535
sV\u98c6
I4564
sV\u7c49
I5118
sV\u624d
I1080
sV\u6851
I303
sV\u8ad2
I2218
sV\u4fd4
I9333
sV\u995b
I8398
sV\u9f5f
I2307
sV\u7cde
I3957
sV\u8563
I5849
sV\u68e6
I8785
sV\u93ec
I8674
sV\u54ee
I7408
sV\u99f0
I7299
sV\u7d73
I2259
sV\u6377
I5480
sV\u9381
I7622
sV\u7e08
I2183
sV\u8d95
I7473
sV\u7799
I8941
sV\u5618
I6994
sV\u63a1
I1372
sV\u8122
I7532
sV\u65a5
I867
sV\u8b26
I5382
sV\u7932
I4981
sS'\xb7'
I7987
sV\u6336
I9329
sV\u8cbf
I6550
sV\u6f3e
I1491
sV\u76c3
I2302
sV\u9444
I3174
sV\u62cb
I783
sV\u5d4a
I7298
sV\u8a50
I2154
sV\u6ed3
I2321
sV\u8c54
I3000
sV\u97d9
I7637
sV\u7658
I3760
sV\u99dd
I1271
sV\u785c
I8910
sV\u83e1
I4550
sV\u85e5
I765
sV\u71ed
I445
sV\u506c
I8154
sV\u976e
I5567
sV\u5c74
I7048
sV\u67f9
I8237
sV\u857a
I7267
sV\u69fd
I3412
sV\u7182
I9602
sV\u5505
I8857
sV\u9807
I5352
sV\u7b86
I7333
sV\u820b
I8673
sV\u840f
I4551
sV\u5396
I5734
sV\u9698
I1958
sV\u7a1b
I5751
sV\u559a
I1791
sV\u7c1f
I4303
sV\u5f9e
I584
sV\u6827
I8878
sV\u522b
I2293
sV\u912d
I1026
sV\u70ac
I3637
sV\u9b31
I3845
sV\u7ab0
I9657
sV\u5e33
I2527
sV\u8739
I9633
sV\u91c2
I3891
sV\u54c4
I7667
sV\u5ec8
I1598
sV\u614d
I4764
sV\u89d2
I678
sV\u9a5b
I3364
sV\u9c5f
I6800
sV\u8663
I8791
sV\u4f69
I390
sV\u6dea
I1181
sV\u746f
I1312
sV\u7e73
I5366
sV\u9cf4
I70
sV\u86f8
I6138
sV\u88fc
I6233
sV\u4ffe
I1596
sV\u3002
I11
sV\u7504
I2580
sS'\x8d'
I7991
sV\u8a91
I4829
sV\u6b10
I8974
sV\u7699
I7813
sV\u5718
I1523
sV\u591c
I54
sV\u9e1e
I803
sV\u64a5
I3558
sV\u50ad
I3456
sV\u762e
I6745
sV\u7832
I6531
sV\u5cb5
I7797
sV\u6236
I217
sV\u643a
I1901
sV\u8dbf
I8824
sV\u6e3e
I600
sV\u5a46
I1738
sV\u5c4a
I8722
sV\u814c
I9539
sV\u65cf
I1926
sV\u6fd3
I9204
sV\u51d7
I9425
sV\u96d9
I434
sV\u7758
I9631
sV\u5bdb
I2556
sV\u795c
I6584
sV\u82e1
I5513
sV\u6f68
I7424
sV\u516c
I795
sV\u7af1
I9171
sV\u5b70
I1506
sV\u7cf5
I4759
sV\u8276
I3391
sV\u66f9
I1397
sV\u847a
I3941
sV\u68fd
I9432
sV\u5201
I3966
sV\u7a86
I1167
sV\u5e09
I8203
sV\u668e
I8485
sV\u8f13
I2738
sV\u5296
I7170
sV\u9798
I5799
sV\u7b1b
I825
sV\u7d1f
I6401
sV\u83a0
I2310
sV\u6723
I7004
sV\u85a4
I4316
sV\u8fa8
I3328
sV\u902d
I6597
sV\u71ac
I5029
sV\u552f
I2084
sV\u7db4
I1845
sV\u67b8
I7219
sV\u69bc
I4388
sV\u7241
I7808
sV\u55c4
I7475
sV\u604d
I2526
sV\u6a51
I6615
sV\u88d2
I6777
sV\u6c55
I5612
sV\u9157
I6477
sV\u72d6
I4870
sV\u9b5b
I6654
sV\u74da
I6034
sV\u8763
I4273
sV\u8967
I9355
sV\u736b
I7041
sV\u6cea
I6288
sV\u756f
I8369
sV\u56ee
I7809
sV\u7f73
I6969
sV\u9df4
I4369
sV\u6177
I1461
sV\u6b7b
I870
sV\u5083
I5818
sV\u7204
I9181
sV\u5e87
I2243
sV\u878d
I430
sV\u660c
I2410
sV\u8d91
I8037
sV\u6c10
I5498
sV\u8b95
I5445
sV\u7199
I1037
sV\u5018
I836
sV\u931a
I8580
sV\u7f9d
I5744
sV\u991e
I2716
sV\u65a1
I4347
sV\u8722
I8113
sV\u63a5
I523
sV\u712e
I7022
sV\u5bb5
I1222
sV\u6536
I268
sV\u8cbb
I1593
sV\u633a
I2850
sV\u8abf
I238
sV\u5742
I3668
sV\u9244
I9027
sV\u62cf
I2839
sV\u8c50
I378
sV\u68d3
I9613
sV\u4f52
I8135
sV\u8a54
I1864
sV\u56d7
I7529
sV\u7058
I3582
sV\u5cdb
I8904
sV\u6264
I8968
sV\u77ed
I118
sV\u566c
I4042
sV\u7df1
I4407
sV\u9f72
I8938
sV\u5501
I2755
sV\u9003
I2730
sV\u5305
I3613
sV\u9e07
I6380
sV\u7d86
I3285
sV\u840b
I5304
sV\u618e
I4214
sV\u8813
I7192
sV\u6f92
I3374
sV\u539a
I977
sV\u7a1f
I4856
sV\u88a8
I6688
sV\u542b
I1877
sV\u9b35
I7319
sV\u7ab4
I9632
sV\u8139
I7028
sV\u60b8
I3523
sV\u6ebc
I4435
sV\u54c0
I454
sV\u97c2
I9015
sV\u7345
I2863
sV\u7949
I6838
sV\u58c8
I3749
sV\u9bca
I6076
sV\u8fd2
I9312
sV\u6b55
I7432
sV\u75d6
I8270
sV\u5f5d
I6291
sV\u9a5f
I2152
sV\u8063
I8347
sV\u67e2
I5842
sV\u6de6
I7520
sV\u746b
I7509
sV\u726f
I7838
sV\u5ff2
I9277
sV\u9af4
I4794
sV\u6677
I4183
sV\u80f8
I1485
sV\u8efc
I5384
sV\u9481
I5453
sV\u9285
I1296
sV\u5f87
I3310
sV\u868d
I5021
sV\u670c
I8550
sV\u6d10
I7708
sV\u8a95
I2113
sV\u7099
I3159
sV\u5118
I1754
sV\u5f1c
I7258
sV\u981e
I7425
sV\u8622
I4287
sV\u68a9
I8847
sV\u95ab
I4085
sV\u8a2a
I1518
sV\u56ad
I9112
sV\u5cb1
I3800
sV\u99b3
I197
sV\u7e32
I5551
sV\u5ab5
I8222
sV\u87b7
I9379
sV\u6436
I3324
sV\u8dbb
I8350
sV\u623a
I6212
sV\u71c3
I3041
sV\u5642
I5679
sV\u5c46
I1443
sV\u9948
I6655
sV\u65cb
I1993
sV\u874c
I6313
sV\u63cf
I4501
sV\u8b54
I6910
sV\u9edd
I2101
sV\u7f5c
I9137
sV\u5bdf
I2700
sV\u82e5
I296
sV\u88e9
I6703
sV\u6968
I8754
sV\u76ed
I6418
sV\u906e
I4292
sV\u7cf1
I8215
sV\u5d70
I9184
sV\u60f9
I3874
sV\u4f7c
I9453
sV\u887e
I1223
sV\u5401
I1242
sV\u7682
I3014
sV\u5205
I8091
sV\u9f07
I2029
sV\u7a8a
I6513
sV\u8913
I6052
sV\u7d1b
I388
sV\u529a
I6101
sV\u9f9c
I593
sV\u589e
I1615
sV\u552b
I8922
sV\u77ac
I3433
sV\u532f
I3359
sV\u7db0
I4583
sV\u7bb4
I2330
sV\u61b8
I7391
sV\u8e3d
I6201
sV\u6fbc
I6514
sV\u7441
I7075
sV\u7849
I6847
sV\u59c8
I9421
sV\u80ce
I2858
sV\u6c51
I9691
sV\u8ed2
I887
sV\u74d6
I8689
sV\u756b
I1789
sV\u6aea
I4885
sV\u736f
I7310
sV\u50ee
I3481
sV\u9df0
I7337
sV\u6777
I4433
sV\u6b7f
I2676
sV\u9781
I8513
sV\u5283
I3436
sV\u9185
I3111
sV\u5c87
I8949
sV\u7a08
I5581
sV\u858d
I6782
sV\u9716
I3186
sV\u8f26
I1320
sV\u892a
I6906
sV\u55ad
I8137
sV\u90af
I3086
sV\u732e
I9345
sV\u9ab3
I6213
sV\u7d32
I5552
sV\u6736
I1840
sV\u88bf
I5841
sV\u6b3e
I2327
sV\u9640
I2893
sV\u72c3
I7962
sV\u9044
I3471
sV\u7cc7
I9441
sV\u60cf
I7702
sV\u8e50
I1788
sV\u6ad3
I4428
sV\u7258
I3876
sV\u5edb
I1898
sV\u7c5c
I4897
sV\u58df
I2544
sV\u81e5
I1923
sV\u6064
I2766
sV\u936e
I8107
sV\u7ff1
I4910
sV\u5e70
I5864
sV\u9d72
I179
sV\u8776
I1352
sV\u8b7e
I6913
sV\u5701
I7587
sV\u7f86
I4843
sV\u5b09
I3021
sV\u860b
I1373
sV\u798a
I5191
sV\u638e
I6512
sV\u4f11
I1393
sV\u8a13
I2425
sV\u6d92
I8562
sV\u9298
I2818
sV\u7e1b
I1284
sV\u781f
I9226
sV\u6223
I7805
sS'\xa4'
I8010
sV\u8aa8
I1244
sV\u9935
I7945
sV\u8339
I2749
sV\u62b8
I9443
sV\u4e3b
I747
sV\u6cbc
I2264
sV\u56c0
I3628
sV\u95c2
I9255
sV\u7145
I7071
sV\u50c4
I8928
sV\u7b49
I1489
sV\u99ca
I7719
sV\u6f51
I4029
sV\u8263
I1902
sV\u65e2
I1804
sV\u53ee
I7236
sV\u5df2
I284
sV\u98f4
I4984
sV\u8cfc
I7037
sV\u687f
I6162
sV\u7700
I8359
sV\u9085
I5594
sV\u7104
I3784
sV\u5d87
I2007
sV\u7b08
I5340
sV\u848d
I6465
sV\u8e91
I3036
sV\u901a
I395
sV\u9a1e
I4163
sS'\xb1'
I8002
sV\u8e26
I6626
sV\u97ab
I8793
sV\u882a
I8123
sV\u91af
I1685
sV\u6636
I7635
sV\u89bf
I4576
sV\u6a3e
I3474
sV\u73c3
I9080
sV\u5442
I1283
sV\u7dc7
I2347
sV\u9b48
I1981
sV\u584a
I2545
sV\u6bd3
I3389
sV\u92d9
I9410
sV\u7d5c
I6660
sV\u6760
I6857
sV\u80e5
I4446
sV\u6164
I6596
sV\u5f70
I4916
sV\u9c72
I8280
sV\u78f5
I3758
sV\u5974
I3480
sV\u8a7e
I7082
sV\u5005
I6097
sV\u9d07
I6484
sV\u7e86
I5821
sV\u5a09
I2445
sV\u870b
I8662
sV\u4e11
I5949
sV\u6c92
I649
sV\u7517
I6084
sV\u509a
I8085
sV\u87a0
I8389
sV\u6d27
I5554
sV\u4ea6
I756
sV\u9835
I6731
sV\u79b4
I7411
sV\u8239
I509
sV\u4f3b
I5476
sV\u8c3d
I4762
sV\u6dbc
I2076
sV\u57c0
I2746
sV\u51c4
I941
sV\u7a49
I3507
sV\u98ca
I8130
sV\u6e51
I6350
sV\u4fd0
I6984
sV\u8cd2
I518
sV\u6855
I7195
sV\u76d6
I1946
sV\u5c5d
I8395
sV\u995f
I6337
sV\u64e2
I4037
sV\u8d67
I2371
sV\u776b
I1905
sV\u7b73
I7005
sV\u99f4
I4459
sV\u6577
I1623
sV\u8dfc
I1787
sV\u5287
I2837
sV\u9589
I511
sV\u6614
I298
sV\u9916
I5037
sV\u521c
I5189
sV\u6fa5
I5872
sV\u4e24
I8133
sV\u9eaf
I4758
sV\u51b1
I8540
sV\u8ab7
I3454
sV\u6936
I3055
sS'\xbb'
I8028
sV\u6f3a
I8046
sV\u86bf
I6194
sV\u653e
I775
sV\u5146
I1165
sV\u68cb
I1177
sV\u574a
I3272
sV\u6ecf
I8912
sV\u8654
I2851
sV\u5ad7
I3572
sV\u9dd9
I3598
sV\u50db
I7795
sV\u93dd
I8239
sV\u89e1
I7857
sV\u8fe5
I456
sV\u85e9
I891
sV\u5a6c
I8385
sV\u5674
I1381
sV\u8976
I5645
sV\u6df9
I607
sV\u857e
I4289
sV\u5f05
I9672
sV\u9207
I2179
sV\u880b
I4309
sV\u8e0f
I877
sV\u6d8e
I688
sV\u6392
I685
sV\u7a17
I2541
sV\u5996
I1775
sV\u701b
I4291
sV\u929c
I2829
sV\u761f
I7327
sV\u88a0
I5745
sV\u6c23
I330
sV\u6227
I8392
sV\u84a8
I4874
sV\u9b2d
I546
sV\u7aac
I6437
sV\u5e2f
I7452
sV\u9131
I3173
sV\u70b0
I6952
sV\u5433
I514
sV\u76b4
I4271
sV\u6cb8
I4649
sV\u62bc
I5399
sV\u7941
I6037
sV\u7f45
I4219
sV\u5ec4
I6408
sV\u54c8
I9313
sV\u97ca
I7608
sS'\xa3'
I8009
sV\u8dce
I3736
sV\u6755
I7699
sV\u9a57
I3439
sV\u79d6
I2668
sV\u905b
I8638
sV\u965f
I3420
sV\u75de
I7290
sV\u61e6
I2916
sV\u786b
I6956
sV\u67ea
I9468
sV\u5dee
I1411
sV\u7473
I4983
sV\u53f2
I719
sV\u8cf8
I2558
sV\u4ffa
I7616
sV\u5d83
I9365
sV\u8a8d
I3226
sV\u4f8f
I6032
sS'\x91'
I7983
sV\u6110
I9029
sV\u8695
I9350
sV\u6714
I3342
sV\u9816
I3935
sV\u5d18
I7402
sV\u9e1a
I3138
sV\u531c
I7369
sV\u8a22
I8405
sV\u6ea5
I7293
sV\u8026
I3160
sV\u64a9
I4973
sV\u7c2e
I8734
sV\u50b1
I9491
sV\u7232
I13
sV\u56b5
I8719
sV\u81bb
I5805
sV\u6e3a
I2487
sV\u87bf
I3698
sV\u73c7
I8234
sV\u69cb
I2034
sV\u8b4c
I7645
sV\u8150
I4475
sV\u65d3
I8736
sV\u51db
I1761
sV\u92dd
I7138
sV\u57df
I1166
sV\u88e1
I4575
sV\u6960
I4610
sV\u8ee5
I4751
sV\u6f64
I701
sV\u7aed
I1306
sV\u9c6e
I6698
sV\u70f1
I6438
sV\u8e7a
I8607
sV\u62fd
I5925
sV\u5801
I5701
sV\u9d03
I8393
sV\u7a82
I6708
sV\u9307
I9026
sV\u5409
I1163
sV\u890b
I8975
sV\u8513
I3484
sV\u6292
I3692
sV\u9d98
I7625
sV\u5e9a
I3283
sV\u771f
I279
sV\u8fa4
I7555
sV\u85a8
I6996
sV\u592b
I223
sV\u9a2d
I5844
sV\u7bac
I6230
sV\u9031
I3699
sV\u5533
I4483
sV\u8c39
I6470
sV\u6db8
I2856
sV\u823d
I8835
sV\u59c0
I8862
sV\u9ac2
I8295
sV\u7e45
I4425
sV\u55c8
I6975
sV\u96ca
I318
sV\u82d2
I4154
sV\u5c59
I7306
sV\u525d
I4690
sV\u74de
I7940
sV\u796b
I9469
sV\u52f2
I2943
sV\u6b77
I1266
sV\u83fc
I6373
sV\u677f
I3954
sV\u7a00
I137
sV\u7c04
I9415
sV\u9789
I5858
sV\u7608
I8768
sV\u6210
I211
sV\u6414
I3340
sV\u9b16
I7206
sV\u7f99
I7731
sV\u5e18
I3847
sV\u501c
I3978
sV\u971e
I1309
sV\u9aab
I6148
sV\u96b3
I1614
sV\u88b7
I5926
sV\u4fb9
I7646
sV\u82bb
I4139
sV\u6d3a
I9205
sV\u84bf
I726
sV\u9a40
I1702
sV\u6acb
I8863
sV\u884c
I21
sV\u4f4e
I470
sV\u8250
I9605
sV\u7e58
I9022
sV\u52db
I4461
sV\u91dd
I817
sV\u4ee3
I1030
sV\u6668
I731
sV\u79ed
I7172
sV\u9f6e
I8417
sV\u5270
I8341
sV\u9172
I5089
sV\u5474
I6038
sV\u8095
I8776
sV\u61fd
I2979
sV\u9e03
I9356
sV\u7982
I4637
sV\u7386
I7375
sV\u5709
I3972
sV\u8a0b
I9549
sV\u758a
I4076
sV\u6f8e
I5722
sV\u8613
I7342
sV\u6192
I5721
sV\u721b
I3497
sV\u5d9a
I9528
sV\u579e
I8533
sV\u8aa0
I1986
sV\u6e23
I7782
sV\u8ca4
I7709
sV\u6027
I586
sV\u86a8
I7282
sV\u992d
I9537
sV\u5c2f
I9457
sV\u8f39
I8997
sV\u813d
I6030
sV\u60bc
I1123
sV\u7d45
I6431
sV\u56c8
I9600
sV\u95ca
I26
sV\u8fce
I1308
sV\u81d2
I9570
sV\u6555
I4217
sV\u9857
I7412
sV\u5f59
I5264
sV\u925b
I2395
sV\u7dda
I1988
sV\u77de
I5390
sV\u8e63
I6920
sV\u69e2
I9232
sV\u8067
I9456
sV\u7a6b
I4877
sV\u98ec
I7614
sV\u7c6f
I4243
sV\u5fee
I8933
sV\u6877
I4258
sV\u8ef8
I3084
sV\u80fc
I4964
sV\u5f83
I8297
sV\u7d04
I772
sV\u5187
I8953
sV\u9689
I9009
sV\u7708
I5529
sV\u888d
I222
sV\u690c
I8946
sV\u8291
I3968
sV\u6310
I6710
sV\u6514
I5656
sV\u9a16
I3298
sV\u5f18
I3263
sV\u8822
I5328
sV\u9bab
I2922
sV\u9daf
I746
sV\u7e2e
I3076
sV\u97b3
I6246
sV\u7032
I4565
sV\u89b7
I3857
sV\u4eb9
I3255
sV\u85bf
I4528
sV\u9748
I577
sV\u6bcb
I1613
sV\u544a
I2464
sV\u894c
I8072
sV\u4e4e
I1235
sV\u8350
I3543
sV\u67d3
I1887
sV\u9ed9
I7757
sV\u7f58
I6901
sV\u53db
I5853
sV\u90dd
I7675
sV\u715c
I5425
sV\u55df
I1082
sV\u6b60
I7567
sV\u6d64
I8067
sV\u86e9
I804
sV\u78ed
I8400
sV\u596c
I5987
sV\u5370
I689
sV\u9072
I181
sV\u8a76
I8854
sV\u6ef9
I4552
sV\u8c7a
I2921
sV\u60fd
I8303
sV\u5a01
I960
sV\u9f03
I7362
sV\u5c05
I6669
sV\u5609
I2304
sV\u8d0f
I3154
sV\u8713
I6665
sV\u6092
I5330
sV\u731b
I1711
sV\u919c
I1854
sV\u751f
I111
sV\u6f23
I3700
sV\u6127
I2473
sV\u982d
I1619
sV\u79ac
I4398
sV\u5d2f
I9042
sV\u9231
I9686
sV\u9435
I1225
sV\u75b4
I3251
sV\u803d
I582
sV\u5bc0
I5917
sV\u98c2
I3362
sV\u7649
I7143
sV\u6251
I6466
sV\u9957
I4982
sV\u5e59
I3612
sV\u935b
I2899
sV\u76de
I1729
sV\u8f63
I6619
sV\u64ea
I7950
sV\u99ec
I6598
sV\u6977
I2229
sV\u8ff8
I907
sV\u637b
I4078
sV\u81fc
I3403
sV\u7c00
I6122
sV\u5883
I1239
sV\u5687
I5867
sV\u9189
I161
sV\u6e0c
I3629
sV\u8591
I6680
sV\u6410
I8611
sV\u6214
I8031
sV\u5818
I6210
sV\u9b1a
I691
sV\u911e
I3832
sS'\x87'
I7999
sV\u8526
I4765
sV\u61a9
I3461
sV\u5fad
I5119
sV\u9aaf
I3643
sV\u792e
I8272
sV\u90b3
I7766
sV\u6d36
I4403
sV\u84bb
I7618
sV\u6b3a
I1158
sV\u82bf
I7328
sV\u613e
I7864
sV\u9a44
I5116
sV\u5546
I1292
sV\u534a
I1282
sV\u8e4c
I6019
sV\u60d3
I6971
sS'\xb8'
I7990
sV\u99d9
I8966
sV\u97dd
I4854
sV\u52df
I4890
sV\u8de1
I1790
sV\u6c60
I903
sV\u6068
I25
sV\u5e6c
I4935
sV\u75f1
I4823
sV\u5470
I7976
sV\u5274
I7875
sV\u69f9
I7142
sV\u9803
I2585
sV\u7586
I3378
sV\u5109
I1009
sV\u738a
I9034
sV\u4f0d
I4352
sV\u8a0f
I6836
sV\u6792
I6974
sV\u7e17
I7571
sV\u741b
I5465
sV\u5b9a
I1031
sV\u969c
I3121
sV\u721f
I9420
sV\u519e
I7804
sV\u8ca0
I331
sV\u8aa4
I2710
sV\u6627
I1272
sV\u5c2b
I6784
sV\u5a2f
I7787
sV\u74b0
I1463
sV\u72b4
I5451
sV\u7d41
I9327
sV\u5ac4
I7920
sV\u7149
I1830
sV\u93ca
I9237
sV\u6551
I2973
sV\u87d2
I7146
sV\u6355
I5623
sV\u945b
I5249
sV\u7bda
I5403
sV\u8863
I78
sV\u8667
I3089
sV\u65e6
I2612
sV\u7c6b
I8534
sV\u63ea
I9651
sV\u7a6f
I7595
sV\u59ee
I457
sV\u57f2
I9558
sV\u88f8
I5776
sV\u647b
I5533
sV\u627f
I1054
sV\u7d00
I2533
sV\u5983
I1774
sV\u7b04
I6546
sV\u9089
I2455
sV\u8e8d
I2731
sV\u7899
I9007
sV\u5918
I8491
sV\u571c
I4777
sV\u901e
I4804
sV\u6ca1
I1879
sV\u8e22
I6981
sV\u6aa5
I7150
sV\u822a
I3405
sV\u5ead
I177
sV\u782e
I5959
sV\u91b3
I6458
sV\u52b5
I3182
sV\u6c36
I9073
sV\u6a3a
I8856
sV\u9d40
I7601
sV\u79c3
I2775
sV\u9b44
I2281
sV\u77c7
I4045
sV\u5446
I8569
sV\u9148
I3267
sV\u6dcb
I4632
sV\u524a
I1572
sV\u6bcf
I1385
sV\u8550
I9215
sV\u8354
I2025
sV\u5fd7
I1078
sV\u55db
I7214
sV\u96dd
I1543
sV\u775c
I5242
sV\u53df
I2653
sV\u8ce1
I4495
sV\u6b64
I110
sS'\xe9'
I7998
sV\u6168
I1444
sV\u5f6c
I2800
sV\u9672
I3013
sV\u5374
I696
sV\u8c76
I9154
sV\u68f9
I631
sV\u807e
I3211
sV\u5c01
I694
sV\u7e82
I5976
sV\u9707
I2134
sV\u7486
I5618
sV\u5009
I1150
sV\u8d0b
I7081
sV\u4e0d
I116
sV\u8b0f
I7859
sV\u9998
I5733
sV\u5a9a
I1776
sV\u509e
I5170
sV\u8da0
I6175
sV\u4ea2
I5154
sV\u6727
I3418
sV\u81a8
I8590
sV\u5133
I8100
sV\u8839
I705
sV\u5dc0
I7061
sV\u9ec2
I8980
sV\u7a45
I9243
sV\u5bc4
I104
sV\u7049
I5962
sV\u51c8
I1723
sV\u6e4d
I1527
sV\u88ce
I6861
sV\u6451
I6962
sV\u9f57
I7959
sV\u7cd6
I6018
sV\u7ada
I1459
sV\u64e6
I8606
sV\u7d6b
I8702
sV\u7b6f
I5192
sV\u58ee
I3652
sV\u93f4
I9473
sV\u89f8
I493
sV\u657b
I2734
sV\u4e8b
I440
sV\u8d8d
I1850
sV\u6610
I9040
sV\u6014
I8525
sV\u9f16
I4460
sV\u7b99
I7056
sV\u5a18
I1369
sV\u991a
I5600
sV\u931e
I9384
sV\u6fa1
I2328
sV\u69a5
I9240
sV\u63a9
I49
sV\u9eab
I6894
sV\u5dad
I7062
sV\u98af
I723
sV\u7b2e
I6055
sV\u92b3
I5177
sV\u7532
I911
sV\u51b5
I277
sV\u8cb7
I1164
sV\u6f36
I4559
sV\u86bb
I7245
sS'\xbf'
I8003
sV\u633e
I1280
sV\u5d42
I6224
sV\u9844
I9684
sV\u6ecb
I192
sV\u8c4c
I7927
sV\u8650
I4774
sV\u62d3
I4298
sV\u56db
I727
sV\u745c
I4092
sV\u6e60
I8244
sV\u89e5
I2546
sV\u83e9
I1732
sV\u5c6c
I580
sV\u77f1
I8360
sV\u5670
I7576
sV\u5074
I681
sV\u6bf9
I7053
sV\u5f01
I2124
sV\u9a03
I5763
sV\u5309
I9527
sV\u718a
I320
sV\u880f
I7907
sV\u6592
I6808
sV\u701f
I1189
sV\u539e
I8140
sV\u8ea0
I6435
sV\u6a23
I4397
sV\u88a4
I3988
sV\u5e2b
I931
sV\u582f
I927
sV\u9731
I7106
sV\u76b0
I8298
sV\u5233
I5220
sV\u8b39
I4276
sV\u853d
I2056
sV\u64bc
I3485
sV\u9dc2
I5518
sV\u7945
I7771
sV\u97c6
I5197
sV\u6751
I273
sV\u6155
I1238
sV\u9c57
I233
sV\u965b
I2971
sV\u905f
I9070
sV\u73de
I7162
sV\u8a63
I3937
sV\u7e6b
I1408
sV\u9cec
I3028
sV\u786f
I2461
sV\u5bee
I3715
sV\u96f0
I6713
sV\u90f4
I2548
sV\u4ff6
I6902
sV\u8af8
I917
sV\u667b
I3902
sV\u84fc
I1351
sV\u607f
I7686
sV\u5b83
I3122
sV\u5587
I9269
sV\u4f8b
I2814
sV\u8c8d
I5458
sV\u6d0c
I3995
sV\u6710
I4884
sS'\x95'
I7997
sV\u6114
I2402
sV\u9e16
I7609
sV\u921e
I995
sV\u7a2e
I761
sV\u56b1
I8097
sV\u7432
I4402
sV\u50b5
I1909
sV\u87bb
I4597
sV\u683a
I7594
sV\u81bf
I7889
sV\u623e
I3846
sV\u75c7
I7786
sV\u5646
I7436
sV\u6fcb
I5963
sV\u504a
I9606
sV\u8154
I4448
sV\u5dd7
I4014
sV\u9ad9
I5681
sV\u57db
I8804
sV\u755c
I3081
sV\u51df
I2649
sV\u6f60
I6715
sV\u6368
I1692
sV\u7ced
I8661
sV\u5d6c
I3778
sV\u76f1
I2106
sV\u5770
I4248
sV\u8e76
I4000
sV\u827e
I3150
sV\u9b03
I7374
sV\u5805
I3387
sV\u7686
I1197
sV\u708a
I474
sV\u890f
I7604
sV\u6a8e
I6568
sV\u6492
I2861
sV\u7d17
I3777
sV\u5e96
I850
sV\u8fa0
I2175
sV\u6b23
I623
sV\u89a4
I6522
sV\u6527
I5654
sV\u83a8
I7360
sV\u9c2d
I1332
sV\u7dac
I3894
sV\u9631
I7085
sV\u77b0
I2031
sV\u5333
I6841
sV\u9035
I3158
sV\u8a39
I8093
sV\u843d
I442
sV\u65bc
I281
sV\u7e41
I169
sV\u96c6
I538
sV\u53c8
I876
sV\u90ca
I1564
sV\u6c4d
I3571
sV\u6055
I5284
sV\u975b
I8483
sV\u78da
I5244
sV\u545d
I8622
sV\u915f
I7358
sV\u6ce2
I1343
sV\u66e6
I3475
sV\u7f6b
I6143
sV\u5aee
I1976
sV\u54f2
I2517
sV\u6d77
I1116
sV\u4ef6
I7058
sV\u677b
I7065
s.